---
triple:          'arm64-apple-darwin'
binary-path:     '/Users/rupeshkumar/Desktop/CPP_DSA/TCS/output/Match'
relocations:
  - { offsetInCU: 0x3006, offset: 0x3006, size: 0x8, addend: 0x0, symName: __ZNSt3__124__put_character_sequenceB7v160006IcNS_11char_traitsIcEEEERNS_13basic_ostreamIT_T0_EES7_PKS4_m, symObjAddr: 0x1D80, symBinAddr: 0x100004970, symSize: 0x1F4 }
  - { offsetInCU: 0x809F, offset: 0x809F, size: 0x8, addend: 0x0, symName: __ZNSt3__1lsB7v160006INS_11char_traitsIcEEEERNS_13basic_ostreamIcT_EES6_PKc, symObjAddr: 0x39C, symBinAddr: 0x100002F8C, symSize: 0x48 }
  - { offsetInCU: 0x80E5, offset: 0x80E5, size: 0x8, addend: 0x0, symName: __ZNSt3__14endlB7v160006IcNS_11char_traitsIcEEEERNS_13basic_ostreamIT_T0_EES7_, symObjAddr: 0x410, symBinAddr: 0x100003000, symSize: 0x58 }
  - { offsetInCU: 0x8125, offset: 0x8125, size: 0x8, addend: 0x0, symName: __ZNSt3__1rsB7v160006IcNS_11char_traitsIcEENS_9allocatorIcEEEERNS_13basic_istreamIT_T0_EES9_RNS_12basic_stringIS6_S7_T1_EE, symObjAddr: 0x468, symBinAddr: 0x100003058, symSize: 0x314 }
  - { offsetInCU: 0x81F2, offset: 0x81F2, size: 0x8, addend: 0x0, symName: __ZNSt3__1neB7v160006ERKNS_19__hash_map_iteratorINS_15__hash_iteratorIPNS_11__hash_nodeINS_17__hash_value_typeIciEEPvEEEEEESB_, symObjAddr: 0x950, symBinAddr: 0x100003540, symSize: 0x30 }
  - { offsetInCU: 0x822F, offset: 0x822F, size: 0x8, addend: 0x0, symName: __ZNSt3__1lsB7v160006INS_11char_traitsIcEEEERNS_13basic_ostreamIcT_EES6_c, symObjAddr: 0x9D4, symBinAddr: 0x1000035C4, symSize: 0x34 }
  - { offsetInCU: 0x8275, offset: 0x8275, size: 0x8, addend: 0x0, symName: __ZNSt3__119__debug_db_insert_cB7v160006INS_13unordered_mapIciNS_4hashIcEENS_8equal_toIcEENS_9allocatorINS_4pairIKciEEEEEEEEvPT_, symObjAddr: 0xAC4, symBinAddr: 0x1000036B4, symSize: 0x10 }
  - { offsetInCU: 0x82A6, offset: 0x82A6, size: 0x8, addend: 0x0, symName: __ZNSt3__130__libcpp_is_constant_evaluatedB7v160006Ev, symObjAddr: 0x13A8, symBinAddr: 0x100003F98, symSize: 0xC }
  - { offsetInCU: 0x82C3, offset: 0x82C3, size: 0x8, addend: 0x0, symName: __ZNSt3__119__libcpp_deallocateB7v160006EPvmm, symObjAddr: 0x13B4, symBinAddr: 0x100003FA4, symSize: 0x30 }
  - { offsetInCU: 0x830B, offset: 0x830B, size: 0x8, addend: 0x0, symName: __ZNSt3__127__do_deallocate_handle_sizeB7v160006IJEEEvPvmDpT_, symObjAddr: 0x13E4, symBinAddr: 0x100003FD4, symSize: 0x28 }
  - { offsetInCU: 0x8349, offset: 0x8349, size: 0x8, addend: 0x0, symName: __ZNSt3__124__libcpp_operator_deleteB7v160006IJPvEEEvDpT_, symObjAddr: 0x140C, symBinAddr: 0x100003FFC, symSize: 0x24 }
  - { offsetInCU: 0x837E, offset: 0x837E, size: 0x8, addend: 0x0, symName: __ZNSt3__118__debug_db_erase_cB7v160006INS_12__hash_tableINS_17__hash_value_typeIciEENS_22__unordered_map_hasherIcS3_NS_4hashIcEENS_8equal_toIcEELb1EEENS_21__unordered_map_equalIcS3_S8_S6_Lb1EEENS_9allocatorIS3_EEEEEEvPT_, symObjAddr: 0x1600, symBinAddr: 0x1000041F0, symSize: 0x10 }
  - { offsetInCU: 0x83E2, offset: 0x83E2, size: 0x8, addend: 0x0, symName: __ZNSt3__119__debug_db_insert_cB7v160006INS_12basic_stringIcNS_11char_traitsIcEENS_9allocatorIcEEEEEEvPT_, symObjAddr: 0x185C, symBinAddr: 0x10000444C, symSize: 0x10 }
  - { offsetInCU: 0x8413, offset: 0x8413, size: 0x8, addend: 0x0, symName: __ZNSt3__117__libcpp_allocateB7v160006Emm, symObjAddr: 0x1CE8, symBinAddr: 0x1000048D8, symSize: 0x28 }
  - { offsetInCU: 0x8450, offset: 0x8450, size: 0x8, addend: 0x0, symName: __ZNSt3__121__libcpp_operator_newB7v160006IJmEEEPvDpT_, symObjAddr: 0x1D24, symBinAddr: 0x100004914, symSize: 0x24 }
  - { offsetInCU: 0x8489, offset: 0x8489, size: 0x8, addend: 0x0, symName: __ZNSt3__116__pad_and_outputB7v160006IcNS_11char_traitsIcEEEENS_19ostreambuf_iteratorIT_T0_EES6_PKS4_S8_S8_RNS_8ios_baseES4_, symObjAddr: 0x1FD8, symBinAddr: 0x100004BC8, symSize: 0x248 }
  - { offsetInCU: 0x8558, offset: 0x8558, size: 0x8, addend: 0x0, symName: __ZNSt3__112__to_addressB7v160006IKcEEPT_S3_, symObjAddr: 0x2458, symBinAddr: 0x100005048, symSize: 0x14 }
  - { offsetInCU: 0x85C0, offset: 0x85C0, size: 0x8, addend: 0x0, symName: __ZNSt3__19use_facetB7v160006INS_5ctypeIcEEEERKT_RKNS_6localeE, symObjAddr: 0x2730, symBinAddr: 0x100005320, symSize: 0x2C }
  - { offsetInCU: 0x89A0, offset: 0x89A0, size: 0x8, addend: 0x0, symName: __ZNSt3__118__constexpr_strlenB7v160006EPKc, symObjAddr: 0x27C8, symBinAddr: 0x1000053B8, symSize: 0x24 }
  - { offsetInCU: 0x9157, offset: 0x9157, size: 0x8, addend: 0x0, symName: __ZNSt3__125__debug_db_invalidate_allB7v160006INS_12basic_stringIcNS_11char_traitsIcEENS_9allocatorIcEEEEEEvPT_, symObjAddr: 0x2B68, symBinAddr: 0x100005758, symSize: 0x10 }
  - { offsetInCU: 0x91BB, offset: 0x91BB, size: 0x8, addend: 0x0, symName: __ZNSt3__116__constrain_hashB7v160006Emm, symObjAddr: 0x3348, symBinAddr: 0x100005F38, symSize: 0x98 }
  - { offsetInCU: 0x9279, offset: 0x9279, size: 0x8, addend: 0x0, symName: __ZNSt3__13maxB7v160006ImEERKT_S3_S3_, symObjAddr: 0x408C, symBinAddr: 0x100006C7C, symSize: 0x2C }
  - { offsetInCU: 0x92BC, offset: 0x92BC, size: 0x8, addend: 0x0, symName: __ZNSt3__116__is_hash_power2B7v160006Em, symObjAddr: 0x40B8, symBinAddr: 0x100006CA8, symSize: 0x50 }
  - { offsetInCU: 0x92E8, offset: 0x92E8, size: 0x8, addend: 0x0, symName: __ZNSt3__116__next_hash_pow2B7v160006Em, symObjAddr: 0x45B4, symBinAddr: 0x1000071A4, symSize: 0x6C }
  - { offsetInCU: 0x9314, offset: 0x9314, size: 0x8, addend: 0x0, symName: __ZNSt3__125__debug_db_invalidate_allB7v160006INS_12__hash_tableINS_17__hash_value_typeIciEENS_22__unordered_map_hasherIcS3_NS_4hashIcEENS_8equal_toIcEELb1EEENS_21__unordered_map_equalIcS3_S8_S6_Lb1EEENS_9allocatorIS3_EEEEEEvPT_, symObjAddr: 0x4620, symBinAddr: 0x100007210, symSize: 0x10 }
  - { offsetInCU: 0x9361, offset: 0x9361, size: 0x8, addend: 0x0, symName: __ZNSt3__112__libcpp_clzB7v160006Em, symObjAddr: 0x47B4, symBinAddr: 0x1000073A4, symSize: 0x1C }
  - { offsetInCU: 0x938D, offset: 0x938D, size: 0x8, addend: 0x0, symName: __ZNSt3__13maxB7v160006ImNS_6__lessImmEEEERKT_S5_S5_T0_, symObjAddr: 0x47D0, symBinAddr: 0x1000073C0, symSize: 0x54 }
  - { offsetInCU: 0x9422, offset: 0x9422, size: 0x8, addend: 0x0, symName: __ZNSt3__1neB7v160006ERKNS_15__hash_iteratorIPNS_11__hash_nodeINS_17__hash_value_typeIciEEPvEEEES9_, symObjAddr: 0x4B0C, symBinAddr: 0x1000076FC, symSize: 0x34 }
  - { offsetInCU: 0x945F, offset: 0x945F, size: 0x8, addend: 0x0, symName: __ZNSt3__1eqB7v160006ERKNS_15__hash_iteratorIPNS_11__hash_nodeINS_17__hash_value_typeIciEEPvEEEES9_, symObjAddr: 0x4B40, symBinAddr: 0x100007730, symSize: 0x30 }
  - { offsetInCU: 0x94B4, offset: 0x94B4, size: 0x8, addend: 0x0, symName: __ZSt28__throw_bad_array_new_lengthB7v160006v, symObjAddr: 0x1CB4, symBinAddr: 0x1000048A4, symSize: 0x34 }
  - { offsetInCU: 0xBE8B, offset: 0xBE8B, size: 0x8, addend: 0x0, symName: _main, symObjAddr: 0x0, symBinAddr: 0x100002BF0, symSize: 0x344 }
  - { offsetInCU: 0xBFA2, offset: 0xBFA2, size: 0x8, addend: 0x0, symName: __ZNSt3__113unordered_mapIciNS_4hashIcEENS_8equal_toIcEENS_9allocatorINS_4pairIKciEEEEEC1B7v160006Ev, symObjAddr: 0x344, symBinAddr: 0x100002F34, symSize: 0x2C }
  - { offsetInCU: 0xBFCC, offset: 0xBFCC, size: 0x8, addend: 0x0, symName: __ZNSt3__112basic_stringIcNS_11char_traitsIcEENS_9allocatorIcEEEC1B7v160006Ev, symObjAddr: 0x370, symBinAddr: 0x100002F60, symSize: 0x2C }
  - { offsetInCU: 0xBFF6, offset: 0xBFF6, size: 0x8, addend: 0x0, symName: __ZNSt3__113basic_ostreamIcNS_11char_traitsIcEEElsB7v160006EPFRS3_S4_E, symObjAddr: 0x3E4, symBinAddr: 0x100002FD4, symSize: 0x2C }
  - { offsetInCU: 0xC02A, offset: 0xC02A, size: 0x8, addend: 0x0, symName: __ZNSt3__112basic_stringIcNS_11char_traitsIcEENS_9allocatorIcEEEixB7v160006Em, symObjAddr: 0x77C, symBinAddr: 0x10000336C, symSize: 0x30 }
  - { offsetInCU: 0xC05F, offset: 0xC05F, size: 0x8, addend: 0x0, symName: __ZNSt3__113unordered_mapIciNS_4hashIcEENS_8equal_toIcEENS_9allocatorINS_4pairIKciEEEEEixERS7_, symObjAddr: 0x7AC, symBinAddr: 0x10000339C, symSize: 0x128 }
  - { offsetInCU: 0xC0C4, offset: 0xC0C4, size: 0x8, addend: 0x0, symName: __ZNSt3__113unordered_mapIciNS_4hashIcEENS_8equal_toIcEENS_9allocatorINS_4pairIKciEEEEE5beginB7v160006Ev, symObjAddr: 0x8E0, symBinAddr: 0x1000034D0, symSize: 0x38 }
  - { offsetInCU: 0xC0EA, offset: 0xC0EA, size: 0x8, addend: 0x0, symName: __ZNSt3__113unordered_mapIciNS_4hashIcEENS_8equal_toIcEENS_9allocatorINS_4pairIKciEEEEE3endB7v160006Ev, symObjAddr: 0x918, symBinAddr: 0x100003508, symSize: 0x38 }
  - { offsetInCU: 0xC110, offset: 0xC110, size: 0x8, addend: 0x0, symName: __ZNKSt3__119__hash_map_iteratorINS_15__hash_iteratorIPNS_11__hash_nodeINS_17__hash_value_typeIciEEPvEEEEEdeB7v160006Ev, symObjAddr: 0x980, symBinAddr: 0x100003570, symSize: 0x28 }
  - { offsetInCU: 0xC136, offset: 0xC136, size: 0x8, addend: 0x0, symName: __ZNSt3__119__hash_map_iteratorINS_15__hash_iteratorIPNS_11__hash_nodeINS_17__hash_value_typeIciEEPvEEEEEppB7v160006Ev, symObjAddr: 0x9A8, symBinAddr: 0x100003598, symSize: 0x2C }
  - { offsetInCU: 0xC15C, offset: 0xC15C, size: 0x8, addend: 0x0, symName: __ZNSt3__113unordered_mapIciNS_4hashIcEENS_8equal_toIcEENS_9allocatorINS_4pairIKciEEEEED1B7v160006Ev, symObjAddr: 0xA08, symBinAddr: 0x1000035F8, symSize: 0x2C }
  - { offsetInCU: 0xC186, offset: 0xC186, size: 0x8, addend: 0x0, symName: __ZNSt3__113unordered_mapIciNS_4hashIcEENS_8equal_toIcEENS_9allocatorINS_4pairIKciEEEEEC2B7v160006Ev, symObjAddr: 0xA34, symBinAddr: 0x100003624, symSize: 0x64 }
  - { offsetInCU: 0xC1B0, offset: 0xC1B0, size: 0x8, addend: 0x0, symName: __ZNSt3__112__hash_tableINS_17__hash_value_typeIciEENS_22__unordered_map_hasherIcS2_NS_4hashIcEENS_8equal_toIcEELb1EEENS_21__unordered_map_equalIcS2_S7_S5_Lb1EEENS_9allocatorIS2_EEEC1Ev, symObjAddr: 0xA98, symBinAddr: 0x100003688, symSize: 0x2C }
  - { offsetInCU: 0xC1DC, offset: 0xC1DC, size: 0x8, addend: 0x0, symName: __ZNSt3__112__hash_tableINS_17__hash_value_typeIciEENS_22__unordered_map_hasherIcS2_NS_4hashIcEENS_8equal_toIcEELb1EEENS_21__unordered_map_equalIcS2_S7_S5_Lb1EEENS_9allocatorIS2_EEED1Ev, symObjAddr: 0xAD4, symBinAddr: 0x1000036C4, symSize: 0x2C }
  - { offsetInCU: 0xC208, offset: 0xC208, size: 0x8, addend: 0x0, symName: __ZNSt3__112__hash_tableINS_17__hash_value_typeIciEENS_22__unordered_map_hasherIcS2_NS_4hashIcEENS_8equal_toIcEELb1EEENS_21__unordered_map_equalIcS2_S7_S5_Lb1EEENS_9allocatorIS2_EEEC2Ev, symObjAddr: 0xB00, symBinAddr: 0x1000036F0, symSize: 0xA4 }
  - { offsetInCU: 0xC234, offset: 0xC234, size: 0x8, addend: 0x0, symName: __ZNSt3__110unique_ptrIA_PNS_16__hash_node_baseIPNS_11__hash_nodeINS_17__hash_value_typeIciEEPvEEEENS_25__bucket_list_deallocatorINS_9allocatorIS9_EEEEEC1B7v160006ILb1EvEEv, symObjAddr: 0xBA4, symBinAddr: 0x100003794, symSize: 0x2C }
  - { offsetInCU: 0xC269, offset: 0xC269, size: 0x8, addend: 0x0, symName: __ZNSt3__117__compressed_pairINS_16__hash_node_baseIPNS_11__hash_nodeINS_17__hash_value_typeIciEEPvEEEENS_9allocatorIS6_EEEC1B7v160006ILb1EvEEv, symObjAddr: 0xBD0, symBinAddr: 0x1000037C0, symSize: 0x2C }
  - { offsetInCU: 0xC2A8, offset: 0xC2A8, size: 0x8, addend: 0x0, symName: __ZNSt3__117__compressed_pairImNS_22__unordered_map_hasherIcNS_17__hash_value_typeIciEENS_4hashIcEENS_8equal_toIcEELb1EEEEC1B7v160006IiNS_18__default_init_tagEEEOT_OT0_, symObjAddr: 0xBFC, symBinAddr: 0x1000037EC, symSize: 0x3C }
  - { offsetInCU: 0xC305, offset: 0xC305, size: 0x8, addend: 0x0, symName: __ZNSt3__117__compressed_pairIfNS_21__unordered_map_equalIcNS_17__hash_value_typeIciEENS_8equal_toIcEENS_4hashIcEELb1EEEEC1B7v160006IfNS_18__default_init_tagEEEOT_OT0_, symObjAddr: 0xC38, symBinAddr: 0x100003828, symSize: 0x3C }
  - { offsetInCU: 0xC35D, offset: 0xC35D, size: 0x8, addend: 0x0, symName: __ZNSt3__110unique_ptrIA_PNS_16__hash_node_baseIPNS_11__hash_nodeINS_17__hash_value_typeIciEEPvEEEENS_25__bucket_list_deallocatorINS_9allocatorIS9_EEEEED1B7v160006Ev, symObjAddr: 0xC74, symBinAddr: 0x100003864, symSize: 0x2C }
  - { offsetInCU: 0xC387, offset: 0xC387, size: 0x8, addend: 0x0, symName: __ZNSt3__110unique_ptrIA_PNS_16__hash_node_baseIPNS_11__hash_nodeINS_17__hash_value_typeIciEEPvEEEENS_25__bucket_list_deallocatorINS_9allocatorIS9_EEEEEC2B7v160006ILb1EvEEv, symObjAddr: 0xCA0, symBinAddr: 0x100003890, symSize: 0x50 }
  - { offsetInCU: 0xC3C1, offset: 0xC3C1, size: 0x8, addend: 0x0, symName: __ZNSt3__117__compressed_pairIPPNS_16__hash_node_baseIPNS_11__hash_nodeINS_17__hash_value_typeIciEEPvEEEENS_25__bucket_list_deallocatorINS_9allocatorIS9_EEEEEC1B7v160006INS_16__value_init_tagESH_EEOT_OT0_, symObjAddr: 0xCF0, symBinAddr: 0x1000038E0, symSize: 0x3C }
  - { offsetInCU: 0xC419, offset: 0xC419, size: 0x8, addend: 0x0, symName: __ZNSt3__117__compressed_pairIPPNS_16__hash_node_baseIPNS_11__hash_nodeINS_17__hash_value_typeIciEEPvEEEENS_25__bucket_list_deallocatorINS_9allocatorIS9_EEEEEC2B7v160006INS_16__value_init_tagESH_EEOT_OT0_, symObjAddr: 0xD2C, symBinAddr: 0x10000391C, symSize: 0x40 }
  - { offsetInCU: 0xC471, offset: 0xC471, size: 0x8, addend: 0x0, symName: __ZNSt3__122__compressed_pair_elemIPPNS_16__hash_node_baseIPNS_11__hash_nodeINS_17__hash_value_typeIciEEPvEEEELi0ELb0EEC2B7v160006ENS_16__value_init_tagE, symObjAddr: 0xD6C, symBinAddr: 0x10000395C, symSize: 0x18 }
  - { offsetInCU: 0xC4A6, offset: 0xC4A6, size: 0x8, addend: 0x0, symName: __ZNSt3__122__compressed_pair_elemINS_25__bucket_list_deallocatorINS_9allocatorIPNS_16__hash_node_baseIPNS_11__hash_nodeINS_17__hash_value_typeIciEEPvEEEEEEEELi1ELb0EEC2B7v160006ENS_16__value_init_tagE, symObjAddr: 0xD84, symBinAddr: 0x100003974, symSize: 0x2C }
  - { offsetInCU: 0xC4DB, offset: 0xC4DB, size: 0x8, addend: 0x0, symName: __ZNSt3__125__bucket_list_deallocatorINS_9allocatorIPNS_16__hash_node_baseIPNS_11__hash_nodeINS_17__hash_value_typeIciEEPvEEEEEEEC1B7v160006Ev, symObjAddr: 0xDB0, symBinAddr: 0x1000039A0, symSize: 0x2C }
  - { offsetInCU: 0xC505, offset: 0xC505, size: 0x8, addend: 0x0, symName: __ZNSt3__125__bucket_list_deallocatorINS_9allocatorIPNS_16__hash_node_baseIPNS_11__hash_nodeINS_17__hash_value_typeIciEEPvEEEEEEEC2B7v160006Ev, symObjAddr: 0xDDC, symBinAddr: 0x1000039CC, symSize: 0x38 }
  - { offsetInCU: 0xC52F, offset: 0xC52F, size: 0x8, addend: 0x0, symName: __ZNSt3__117__compressed_pairImNS_9allocatorIPNS_16__hash_node_baseIPNS_11__hash_nodeINS_17__hash_value_typeIciEEPvEEEEEEEC1B7v160006IiNS_18__default_init_tagEEEOT_OT0_, symObjAddr: 0xE14, symBinAddr: 0x100003A04, symSize: 0x3C }
  - { offsetInCU: 0xC587, offset: 0xC587, size: 0x8, addend: 0x0, symName: __ZNSt3__117__compressed_pairImNS_9allocatorIPNS_16__hash_node_baseIPNS_11__hash_nodeINS_17__hash_value_typeIciEEPvEEEEEEEC2B7v160006IiNS_18__default_init_tagEEEOT_OT0_, symObjAddr: 0xE50, symBinAddr: 0x100003A40, symSize: 0x40 }
  - { offsetInCU: 0xC5DF, offset: 0xC5DF, size: 0x8, addend: 0x0, symName: __ZNSt3__122__compressed_pair_elemImLi0ELb0EEC2B7v160006IivEEOT_, symObjAddr: 0xE90, symBinAddr: 0x100003A80, symSize: 0x24 }
  - { offsetInCU: 0xC621, offset: 0xC621, size: 0x8, addend: 0x0, symName: __ZNSt3__122__compressed_pair_elemINS_9allocatorIPNS_16__hash_node_baseIPNS_11__hash_nodeINS_17__hash_value_typeIciEEPvEEEEEELi1ELb1EEC2B7v160006ENS_18__default_init_tagE, symObjAddr: 0xEB4, symBinAddr: 0x100003AA4, symSize: 0x2C }
  - { offsetInCU: 0xC656, offset: 0xC656, size: 0x8, addend: 0x0, symName: __ZNSt3__19allocatorIPNS_16__hash_node_baseIPNS_11__hash_nodeINS_17__hash_value_typeIciEEPvEEEEEC2B7v160006Ev, symObjAddr: 0xEE0, symBinAddr: 0x100003AD0, symSize: 0x2C }
  - { offsetInCU: 0xC680, offset: 0xC680, size: 0x8, addend: 0x0, symName: __ZNSt3__116__non_trivial_ifILb1ENS_9allocatorIPNS_16__hash_node_baseIPNS_11__hash_nodeINS_17__hash_value_typeIciEEPvEEEEEEEC2B7v160006Ev, symObjAddr: 0xF0C, symBinAddr: 0x100003AFC, symSize: 0x14 }
  - { offsetInCU: 0xC6AA, offset: 0xC6AA, size: 0x8, addend: 0x0, symName: __ZNSt3__117__compressed_pairINS_16__hash_node_baseIPNS_11__hash_nodeINS_17__hash_value_typeIciEEPvEEEENS_9allocatorIS6_EEEC2B7v160006ILb1EvEEv, symObjAddr: 0xF20, symBinAddr: 0x100003B10, symSize: 0x34 }
  - { offsetInCU: 0xC6DF, offset: 0xC6DF, size: 0x8, addend: 0x0, symName: __ZNSt3__122__compressed_pair_elemINS_16__hash_node_baseIPNS_11__hash_nodeINS_17__hash_value_typeIciEEPvEEEELi0ELb0EEC2B7v160006ENS_16__value_init_tagE, symObjAddr: 0xF54, symBinAddr: 0x100003B44, symSize: 0x2C }
  - { offsetInCU: 0xC714, offset: 0xC714, size: 0x8, addend: 0x0, symName: __ZNSt3__122__compressed_pair_elemINS_9allocatorINS_11__hash_nodeINS_17__hash_value_typeIciEEPvEEEELi1ELb1EEC2B7v160006ENS_16__value_init_tagE, symObjAddr: 0xF80, symBinAddr: 0x100003B70, symSize: 0x2C }
  - { offsetInCU: 0xC749, offset: 0xC749, size: 0x8, addend: 0x0, symName: __ZNSt3__116__hash_node_baseIPNS_11__hash_nodeINS_17__hash_value_typeIciEEPvEEEC1B7v160006Ev, symObjAddr: 0xFAC, symBinAddr: 0x100003B9C, symSize: 0x2C }
  - { offsetInCU: 0xC773, offset: 0xC773, size: 0x8, addend: 0x0, symName: __ZNSt3__116__hash_node_baseIPNS_11__hash_nodeINS_17__hash_value_typeIciEEPvEEEC2B7v160006Ev, symObjAddr: 0xFD8, symBinAddr: 0x100003BC8, symSize: 0x18 }
  - { offsetInCU: 0xC79D, offset: 0xC79D, size: 0x8, addend: 0x0, symName: __ZNSt3__19allocatorINS_11__hash_nodeINS_17__hash_value_typeIciEEPvEEEC2B7v160006Ev, symObjAddr: 0xFF0, symBinAddr: 0x100003BE0, symSize: 0x2C }
  - { offsetInCU: 0xC7C7, offset: 0xC7C7, size: 0x8, addend: 0x0, symName: __ZNSt3__116__non_trivial_ifILb1ENS_9allocatorINS_11__hash_nodeINS_17__hash_value_typeIciEEPvEEEEEC2B7v160006Ev, symObjAddr: 0x101C, symBinAddr: 0x100003C0C, symSize: 0x14 }
  - { offsetInCU: 0xC7F1, offset: 0xC7F1, size: 0x8, addend: 0x0, symName: __ZNSt3__117__compressed_pairImNS_22__unordered_map_hasherIcNS_17__hash_value_typeIciEENS_4hashIcEENS_8equal_toIcEELb1EEEEC2B7v160006IiNS_18__default_init_tagEEEOT_OT0_, symObjAddr: 0x1030, symBinAddr: 0x100003C20, symSize: 0x40 }
  - { offsetInCU: 0xC849, offset: 0xC849, size: 0x8, addend: 0x0, symName: __ZNSt3__122__compressed_pair_elemINS_22__unordered_map_hasherIcNS_17__hash_value_typeIciEENS_4hashIcEENS_8equal_toIcEELb1EEELi1ELb1EEC2B7v160006ENS_18__default_init_tagE, symObjAddr: 0x1070, symBinAddr: 0x100003C60, symSize: 0x2C }
  - { offsetInCU: 0xC87E, offset: 0xC87E, size: 0x8, addend: 0x0, symName: __ZNSt3__122__unordered_map_hasherIcNS_17__hash_value_typeIciEENS_4hashIcEENS_8equal_toIcEELb1EEC2B7v160006Ev, symObjAddr: 0x109C, symBinAddr: 0x100003C8C, symSize: 0x14 }
  - { offsetInCU: 0xC8A8, offset: 0xC8A8, size: 0x8, addend: 0x0, symName: __ZNSt3__117__compressed_pairIfNS_21__unordered_map_equalIcNS_17__hash_value_typeIciEENS_8equal_toIcEENS_4hashIcEELb1EEEEC2B7v160006IfNS_18__default_init_tagEEEOT_OT0_, symObjAddr: 0x10B0, symBinAddr: 0x100003CA0, symSize: 0x40 }
  - { offsetInCU: 0xC900, offset: 0xC900, size: 0x8, addend: 0x0, symName: __ZNSt3__122__compressed_pair_elemIfLi0ELb0EEC2B7v160006IfvEEOT_, symObjAddr: 0x10F0, symBinAddr: 0x100003CE0, symSize: 0x24 }
  - { offsetInCU: 0xC942, offset: 0xC942, size: 0x8, addend: 0x0, symName: __ZNSt3__122__compressed_pair_elemINS_21__unordered_map_equalIcNS_17__hash_value_typeIciEENS_8equal_toIcEENS_4hashIcEELb1EEELi1ELb1EEC2B7v160006ENS_18__default_init_tagE, symObjAddr: 0x1114, symBinAddr: 0x100003D04, symSize: 0x2C }
  - { offsetInCU: 0xC977, offset: 0xC977, size: 0x8, addend: 0x0, symName: __ZNSt3__121__unordered_map_equalIcNS_17__hash_value_typeIciEENS_8equal_toIcEENS_4hashIcEELb1EEC2B7v160006Ev, symObjAddr: 0x1140, symBinAddr: 0x100003D30, symSize: 0x14 }
  - { offsetInCU: 0xC9A1, offset: 0xC9A1, size: 0x8, addend: 0x0, symName: __ZNSt3__110unique_ptrIA_PNS_16__hash_node_baseIPNS_11__hash_nodeINS_17__hash_value_typeIciEEPvEEEENS_25__bucket_list_deallocatorINS_9allocatorIS9_EEEEED2B7v160006Ev, symObjAddr: 0x1154, symBinAddr: 0x100003D44, symSize: 0x30 }
  - { offsetInCU: 0xC9CB, offset: 0xC9CB, size: 0x8, addend: 0x0, symName: __ZNSt3__110unique_ptrIA_PNS_16__hash_node_baseIPNS_11__hash_nodeINS_17__hash_value_typeIciEEPvEEEENS_25__bucket_list_deallocatorINS_9allocatorIS9_EEEEE5resetB7v160006EDn, symObjAddr: 0x1184, symBinAddr: 0x100003D74, symSize: 0x6C }
  - { offsetInCU: 0xCA0C, offset: 0xCA0C, size: 0x8, addend: 0x0, symName: __ZNSt3__117__compressed_pairIPPNS_16__hash_node_baseIPNS_11__hash_nodeINS_17__hash_value_typeIciEEPvEEEENS_25__bucket_list_deallocatorINS_9allocatorIS9_EEEEE5firstB7v160006Ev, symObjAddr: 0x11F0, symBinAddr: 0x100003DE0, symSize: 0x24 }
  - { offsetInCU: 0xCA32, offset: 0xCA32, size: 0x8, addend: 0x0, symName: __ZNSt3__117__compressed_pairIPPNS_16__hash_node_baseIPNS_11__hash_nodeINS_17__hash_value_typeIciEEPvEEEENS_25__bucket_list_deallocatorINS_9allocatorIS9_EEEEE6secondB7v160006Ev, symObjAddr: 0x1214, symBinAddr: 0x100003E04, symSize: 0x28 }
  - { offsetInCU: 0xCA58, offset: 0xCA58, size: 0x8, addend: 0x0, symName: __ZNSt3__125__bucket_list_deallocatorINS_9allocatorIPNS_16__hash_node_baseIPNS_11__hash_nodeINS_17__hash_value_typeIciEEPvEEEEEEEclB7v160006EPSA_, symObjAddr: 0x123C, symBinAddr: 0x100003E2C, symSize: 0x58 }
  - { offsetInCU: 0xCA8D, offset: 0xCA8D, size: 0x8, addend: 0x0, symName: __ZNSt3__122__compressed_pair_elemIPPNS_16__hash_node_baseIPNS_11__hash_nodeINS_17__hash_value_typeIciEEPvEEEELi0ELb0EE5__getB7v160006Ev, symObjAddr: 0x1294, symBinAddr: 0x100003E84, symSize: 0x14 }
  - { offsetInCU: 0xCAB3, offset: 0xCAB3, size: 0x8, addend: 0x0, symName: __ZNSt3__122__compressed_pair_elemINS_25__bucket_list_deallocatorINS_9allocatorIPNS_16__hash_node_baseIPNS_11__hash_nodeINS_17__hash_value_typeIciEEPvEEEEEEEELi1ELb0EE5__getB7v160006Ev, symObjAddr: 0x12A8, symBinAddr: 0x100003E98, symSize: 0x14 }
  - { offsetInCU: 0xCAD9, offset: 0xCAD9, size: 0x8, addend: 0x0, symName: __ZNSt3__116allocator_traitsINS_9allocatorIPNS_16__hash_node_baseIPNS_11__hash_nodeINS_17__hash_value_typeIciEEPvEEEEEEE10deallocateB7v160006ERSB_PSA_m, symObjAddr: 0x12BC, symBinAddr: 0x100003EAC, symSize: 0x34 }
  - { offsetInCU: 0xCB1B, offset: 0xCB1B, size: 0x8, addend: 0x0, symName: __ZNSt3__125__bucket_list_deallocatorINS_9allocatorIPNS_16__hash_node_baseIPNS_11__hash_nodeINS_17__hash_value_typeIciEEPvEEEEEEE7__allocB7v160006Ev, symObjAddr: 0x12F0, symBinAddr: 0x100003EE0, symSize: 0x24 }
  - { offsetInCU: 0xCB41, offset: 0xCB41, size: 0x8, addend: 0x0, symName: __ZNSt3__125__bucket_list_deallocatorINS_9allocatorIPNS_16__hash_node_baseIPNS_11__hash_nodeINS_17__hash_value_typeIciEEPvEEEEEEE4sizeB7v160006Ev, symObjAddr: 0x1314, symBinAddr: 0x100003F04, symSize: 0x24 }
  - { offsetInCU: 0xCB67, offset: 0xCB67, size: 0x8, addend: 0x0, symName: __ZNSt3__19allocatorIPNS_16__hash_node_baseIPNS_11__hash_nodeINS_17__hash_value_typeIciEEPvEEEEE10deallocateB7v160006EPS9_m, symObjAddr: 0x1338, symBinAddr: 0x100003F28, symSize: 0x70 }
  - { offsetInCU: 0xCBA9, offset: 0xCBA9, size: 0x8, addend: 0x0, symName: __ZNSt3__117__compressed_pairImNS_9allocatorIPNS_16__hash_node_baseIPNS_11__hash_nodeINS_17__hash_value_typeIciEEPvEEEEEEE6secondB7v160006Ev, symObjAddr: 0x1430, symBinAddr: 0x100004020, symSize: 0x24 }
  - { offsetInCU: 0xCBCF, offset: 0xCBCF, size: 0x8, addend: 0x0, symName: __ZNSt3__122__compressed_pair_elemINS_9allocatorIPNS_16__hash_node_baseIPNS_11__hash_nodeINS_17__hash_value_typeIciEEPvEEEEEELi1ELb1EE5__getB7v160006Ev, symObjAddr: 0x1454, symBinAddr: 0x100004044, symSize: 0x14 }
  - { offsetInCU: 0xCBF5, offset: 0xCBF5, size: 0x8, addend: 0x0, symName: __ZNSt3__117__compressed_pairImNS_9allocatorIPNS_16__hash_node_baseIPNS_11__hash_nodeINS_17__hash_value_typeIciEEPvEEEEEEE5firstB7v160006Ev, symObjAddr: 0x1468, symBinAddr: 0x100004058, symSize: 0x24 }
  - { offsetInCU: 0xCC1B, offset: 0xCC1B, size: 0x8, addend: 0x0, symName: __ZNSt3__122__compressed_pair_elemImLi0ELb0EE5__getB7v160006Ev, symObjAddr: 0x148C, symBinAddr: 0x10000407C, symSize: 0x14 }
  - { offsetInCU: 0xCC41, offset: 0xCC41, size: 0x8, addend: 0x0, symName: __ZNSt3__112__hash_tableINS_17__hash_value_typeIciEENS_22__unordered_map_hasherIcS2_NS_4hashIcEENS_8equal_toIcEELb1EEENS_21__unordered_map_equalIcS2_S7_S5_Lb1EEENS_9allocatorIS2_EEED2Ev, symObjAddr: 0x14A0, symBinAddr: 0x100004090, symSize: 0x80 }
  - { offsetInCU: 0xCC6D, offset: 0xCC6D, size: 0x8, addend: 0x0, symName: __ZNSt3__112__hash_tableINS_17__hash_value_typeIciEENS_22__unordered_map_hasherIcS2_NS_4hashIcEENS_8equal_toIcEELb1EEENS_21__unordered_map_equalIcS2_S7_S5_Lb1EEENS_9allocatorIS2_EEE17__deallocate_nodeEPNS_16__hash_node_baseIPNS_11__hash_nodeIS2_PvEEEE, symObjAddr: 0x1520, symBinAddr: 0x100004110, symSize: 0xBC }
  - { offsetInCU: 0xCCD7, offset: 0xCCD7, size: 0x8, addend: 0x0, symName: __ZNSt3__117__compressed_pairINS_16__hash_node_baseIPNS_11__hash_nodeINS_17__hash_value_typeIciEEPvEEEENS_9allocatorIS6_EEE5firstB7v160006Ev, symObjAddr: 0x15DC, symBinAddr: 0x1000041CC, symSize: 0x24 }
  - { offsetInCU: 0xCCFD, offset: 0xCCFD, size: 0x8, addend: 0x0, symName: __ZNSt3__112__hash_tableINS_17__hash_value_typeIciEENS_22__unordered_map_hasherIcS2_NS_4hashIcEENS_8equal_toIcEELb1EEENS_21__unordered_map_equalIcS2_S7_S5_Lb1EEENS_9allocatorIS2_EEE12__node_allocB7v160006Ev, symObjAddr: 0x1610, symBinAddr: 0x100004200, symSize: 0x28 }
  - { offsetInCU: 0xCD23, offset: 0xCD23, size: 0x8, addend: 0x0, symName: __ZNSt3__116__hash_node_baseIPNS_11__hash_nodeINS_17__hash_value_typeIciEEPvEEE8__upcastB7v160006Ev, symObjAddr: 0x1638, symBinAddr: 0x100004228, symSize: 0x24 }
  - { offsetInCU: 0xCD49, offset: 0xCD49, size: 0x8, addend: 0x0, symName: __ZNSt3__116allocator_traitsINS_9allocatorINS_11__hash_nodeINS_17__hash_value_typeIciEEPvEEEEE7destroyB7v160006INS_4pairIKciEEvvEEvRS7_PT_, symObjAddr: 0x165C, symBinAddr: 0x10000424C, symSize: 0x14 }
  - { offsetInCU: 0xCD84, offset: 0xCD84, size: 0x8, addend: 0x0, symName: __ZNSt3__122__hash_key_value_typesINS_17__hash_value_typeIciEEE9__get_ptrB7v160006ERS2_, symObjAddr: 0x1670, symBinAddr: 0x100004260, symSize: 0x24 }
  - { offsetInCU: 0xCDA7, offset: 0xCDA7, size: 0x8, addend: 0x0, symName: __ZNSt3__116allocator_traitsINS_9allocatorINS_11__hash_nodeINS_17__hash_value_typeIciEEPvEEEEE10deallocateB7v160006ERS7_PS6_m, symObjAddr: 0x1694, symBinAddr: 0x100004284, symSize: 0x34 }
  - { offsetInCU: 0xCDE9, offset: 0xCDE9, size: 0x8, addend: 0x0, symName: __ZNSt3__117__compressed_pairINS_16__hash_node_baseIPNS_11__hash_nodeINS_17__hash_value_typeIciEEPvEEEENS_9allocatorIS6_EEE6secondB7v160006Ev, symObjAddr: 0x16C8, symBinAddr: 0x1000042B8, symSize: 0x24 }
  - { offsetInCU: 0xCE0F, offset: 0xCE0F, size: 0x8, addend: 0x0, symName: __ZNSt3__122__compressed_pair_elemINS_9allocatorINS_11__hash_nodeINS_17__hash_value_typeIciEEPvEEEELi1ELb1EE5__getB7v160006Ev, symObjAddr: 0x16EC, symBinAddr: 0x1000042DC, symSize: 0x14 }
  - { offsetInCU: 0xCE35, offset: 0xCE35, size: 0x8, addend: 0x0, symName: __ZNSt3__114pointer_traitsIPNS_16__hash_node_baseIPNS_11__hash_nodeINS_17__hash_value_typeIciEEPvEEEEE10pointer_toB7v160006ERS8_, symObjAddr: 0x1700, symBinAddr: 0x1000042F0, symSize: 0x14 }
  - { offsetInCU: 0xCE58, offset: 0xCE58, size: 0x8, addend: 0x0, symName: __ZNSt3__117__hash_value_typeIciE11__get_valueB7v160006Ev, symObjAddr: 0x1714, symBinAddr: 0x100004304, symSize: 0x14 }
  - { offsetInCU: 0xCE7E, offset: 0xCE7E, size: 0x8, addend: 0x0, symName: __ZNSt3__19allocatorINS_11__hash_nodeINS_17__hash_value_typeIciEEPvEEE10deallocateB7v160006EPS5_m, symObjAddr: 0x1728, symBinAddr: 0x100004318, symSize: 0x74 }
  - { offsetInCU: 0xCEC0, offset: 0xCEC0, size: 0x8, addend: 0x0, symName: __ZNSt3__122__compressed_pair_elemINS_16__hash_node_baseIPNS_11__hash_nodeINS_17__hash_value_typeIciEEPvEEEELi0ELb0EE5__getB7v160006Ev, symObjAddr: 0x179C, symBinAddr: 0x10000438C, symSize: 0x14 }
  - { offsetInCU: 0xCEE6, offset: 0xCEE6, size: 0x8, addend: 0x0, symName: __ZNSt3__113unordered_mapIciNS_4hashIcEENS_8equal_toIcEENS_9allocatorINS_4pairIKciEEEEED2B7v160006Ev, symObjAddr: 0x17B0, symBinAddr: 0x1000043A0, symSize: 0x2C }
  - { offsetInCU: 0xCF10, offset: 0xCF10, size: 0x8, addend: 0x0, symName: __ZNSt3__112basic_stringIcNS_11char_traitsIcEENS_9allocatorIcEEEC2B7v160006Ev, symObjAddr: 0x17DC, symBinAddr: 0x1000043CC, symSize: 0x44 }
  - { offsetInCU: 0xCF3A, offset: 0xCF3A, size: 0x8, addend: 0x0, symName: __ZNSt3__117__compressed_pairINS_12basic_stringIcNS_11char_traitsIcEENS_9allocatorIcEEE5__repES5_EC1B7v160006INS_18__default_init_tagESA_EEOT_OT0_, symObjAddr: 0x1820, symBinAddr: 0x100004410, symSize: 0x3C }
  - { offsetInCU: 0xCF92, offset: 0xCF92, size: 0x8, addend: 0x0, symName: __ZNSt3__112basic_stringIcNS_11char_traitsIcEENS_9allocatorIcEEE14__default_initB7v160006Ev, symObjAddr: 0x186C, symBinAddr: 0x10000445C, symSize: 0xB0 }
  - { offsetInCU: 0xCFE5, offset: 0xCFE5, size: 0x8, addend: 0x0, symName: __ZNSt3__117__compressed_pairINS_12basic_stringIcNS_11char_traitsIcEENS_9allocatorIcEEE5__repES5_EC2B7v160006INS_18__default_init_tagESA_EEOT_OT0_, symObjAddr: 0x191C, symBinAddr: 0x10000450C, symSize: 0x3C }
  - { offsetInCU: 0xD03D, offset: 0xD03D, size: 0x8, addend: 0x0, symName: __ZNSt3__122__compressed_pair_elemINS_12basic_stringIcNS_11char_traitsIcEENS_9allocatorIcEEE5__repELi0ELb0EEC2B7v160006ENS_18__default_init_tagE, symObjAddr: 0x1958, symBinAddr: 0x100004548, symSize: 0x14 }
  - { offsetInCU: 0xD072, offset: 0xD072, size: 0x8, addend: 0x0, symName: __ZNSt3__122__compressed_pair_elemINS_9allocatorIcEELi1ELb1EEC2B7v160006ENS_18__default_init_tagE, symObjAddr: 0x196C, symBinAddr: 0x10000455C, symSize: 0x2C }
  - { offsetInCU: 0xD0A7, offset: 0xD0A7, size: 0x8, addend: 0x0, symName: __ZNSt3__19allocatorIcEC2B7v160006Ev, symObjAddr: 0x1998, symBinAddr: 0x100004588, symSize: 0x2C }
  - { offsetInCU: 0xD0D1, offset: 0xD0D1, size: 0x8, addend: 0x0, symName: __ZNSt3__116__non_trivial_ifILb1ENS_9allocatorIcEEEC2B7v160006Ev, symObjAddr: 0x19C4, symBinAddr: 0x1000045B4, symSize: 0x14 }
  - { offsetInCU: 0xD0FB, offset: 0xD0FB, size: 0x8, addend: 0x0, symName: __ZNSt3__117__compressed_pairINS_12basic_stringIcNS_11char_traitsIcEENS_9allocatorIcEEE5__repES5_E5firstB7v160006Ev, symObjAddr: 0x19D8, symBinAddr: 0x1000045C8, symSize: 0x24 }
  - { offsetInCU: 0xD121, offset: 0xD121, size: 0x8, addend: 0x0, symName: __ZNSt3__112basic_stringIcNS_11char_traitsIcEENS_9allocatorIcEEE11__recommendB7v160006Em, symObjAddr: 0x19FC, symBinAddr: 0x1000045EC, symSize: 0x9C }
  - { offsetInCU: 0xD154, offset: 0xD154, size: 0x8, addend: 0x0, symName: __ZNSt3__116allocator_traitsINS_9allocatorIcEEE8allocateB7v160006ERS2_m, symObjAddr: 0x1A98, symBinAddr: 0x100004688, symSize: 0x2C }
  - { offsetInCU: 0xD187, offset: 0xD187, size: 0x8, addend: 0x0, symName: __ZNSt3__112basic_stringIcNS_11char_traitsIcEENS_9allocatorIcEEE7__allocB7v160006Ev, symObjAddr: 0x1AC4, symBinAddr: 0x1000046B4, symSize: 0x24 }
  - { offsetInCU: 0xD1AD, offset: 0xD1AD, size: 0x8, addend: 0x0, symName: __ZNSt3__112basic_stringIcNS_11char_traitsIcEENS_9allocatorIcEEE16__begin_lifetimeB7v160006EPcm, symObjAddr: 0x1AE8, symBinAddr: 0x1000046D8, symSize: 0x14 }
  - { offsetInCU: 0xD1E0, offset: 0xD1E0, size: 0x8, addend: 0x0, symName: __ZNSt3__112basic_stringIcNS_11char_traitsIcEENS_9allocatorIcEEE18__set_long_pointerB7v160006EPc, symObjAddr: 0x1AFC, symBinAddr: 0x1000046EC, symSize: 0x38 }
  - { offsetInCU: 0xD215, offset: 0xD215, size: 0x8, addend: 0x0, symName: __ZNSt3__112basic_stringIcNS_11char_traitsIcEENS_9allocatorIcEEE14__set_long_capB7v160006Em, symObjAddr: 0x1B34, symBinAddr: 0x100004724, symSize: 0x70 }
  - { offsetInCU: 0xD24A, offset: 0xD24A, size: 0x8, addend: 0x0, symName: __ZNSt3__112basic_stringIcNS_11char_traitsIcEENS_9allocatorIcEEE15__set_long_sizeB7v160006Em, symObjAddr: 0x1BA4, symBinAddr: 0x100004794, symSize: 0x38 }
  - { offsetInCU: 0xD27F, offset: 0xD27F, size: 0x8, addend: 0x0, symName: __ZNSt3__122__compressed_pair_elemINS_12basic_stringIcNS_11char_traitsIcEENS_9allocatorIcEEE5__repELi0ELb0EE5__getB7v160006Ev, symObjAddr: 0x1BDC, symBinAddr: 0x1000047CC, symSize: 0x14 }
  - { offsetInCU: 0xD2A5, offset: 0xD2A5, size: 0x8, addend: 0x0, symName: __ZNSt3__112basic_stringIcNS_11char_traitsIcEENS_9allocatorIcEEE10__align_itB7v160006ILm16EEEmm, symObjAddr: 0x1BF0, symBinAddr: 0x1000047E0, symSize: 0x1C }
  - { offsetInCU: 0xD2D3, offset: 0xD2D3, size: 0x8, addend: 0x0, symName: __ZNSt3__19allocatorIcE8allocateB7v160006Em, symObjAddr: 0x1C0C, symBinAddr: 0x1000047FC, symSize: 0x84 }
  - { offsetInCU: 0xD311, offset: 0xD311, size: 0x8, addend: 0x0, symName: __ZNSt3__116allocator_traitsINS_9allocatorIcEEE8max_sizeB7v160006IS2_vEEmRKS2_, symObjAddr: 0x1C90, symBinAddr: 0x100004880, symSize: 0x24 }
  - { offsetInCU: 0xD33F, offset: 0xD33F, size: 0x8, addend: 0x0, symName: __ZNKSt3__19allocatorIcE8max_sizeB7v160006Ev, symObjAddr: 0x1D10, symBinAddr: 0x100004900, symSize: 0x14 }
  - { offsetInCU: 0xD365, offset: 0xD365, size: 0x8, addend: 0x0, symName: __ZNSt3__117__compressed_pairINS_12basic_stringIcNS_11char_traitsIcEENS_9allocatorIcEEE5__repES5_E6secondB7v160006Ev, symObjAddr: 0x1D48, symBinAddr: 0x100004938, symSize: 0x24 }
  - { offsetInCU: 0xD38B, offset: 0xD38B, size: 0x8, addend: 0x0, symName: __ZNSt3__122__compressed_pair_elemINS_9allocatorIcEELi1ELb1EE5__getB7v160006Ev, symObjAddr: 0x1D6C, symBinAddr: 0x10000495C, symSize: 0x14 }
  - { offsetInCU: 0xD3B1, offset: 0xD3B1, size: 0x8, addend: 0x0, symName: __ZNSt3__111char_traitsIcE6lengthEPKc, symObjAddr: 0x1F74, symBinAddr: 0x100004B64, symSize: 0x48 }
  - { offsetInCU: 0xD3F2, offset: 0xD3F2, size: 0x8, addend: 0x0, symName: __ZNKSt3__113basic_ostreamIcNS_11char_traitsIcEEE6sentrycvbB7v160006Ev, symObjAddr: 0x1FBC, symBinAddr: 0x100004BAC, symSize: 0x1C }
  - { offsetInCU: 0xD418, offset: 0xD418, size: 0x8, addend: 0x0, symName: __ZNSt3__119ostreambuf_iteratorIcNS_11char_traitsIcEEEC1B7v160006ERNS_13basic_ostreamIcS2_EE, symObjAddr: 0x2220, symBinAddr: 0x100004E10, symSize: 0x34 }
  - { offsetInCU: 0xD450, offset: 0xD450, size: 0x8, addend: 0x0, symName: __ZNKSt3__18ios_base5flagsB7v160006Ev, symObjAddr: 0x2254, symBinAddr: 0x100004E44, symSize: 0x18 }
  - { offsetInCU: 0xD478, offset: 0xD478, size: 0x8, addend: 0x0, symName: __ZNKSt3__19basic_iosIcNS_11char_traitsIcEEE4fillB7v160006Ev, symObjAddr: 0x226C, symBinAddr: 0x100004E5C, symSize: 0x64 }
  - { offsetInCU: 0xD4A0, offset: 0xD4A0, size: 0x8, addend: 0x0, symName: __ZNKSt3__119ostreambuf_iteratorIcNS_11char_traitsIcEEE6failedB7v160006Ev, symObjAddr: 0x22D0, symBinAddr: 0x100004EC0, symSize: 0x24 }
  - { offsetInCU: 0xD4C6, offset: 0xD4C6, size: 0x8, addend: 0x0, symName: __ZNSt3__19basic_iosIcNS_11char_traitsIcEEE8setstateB7v160006Ej, symObjAddr: 0x22F4, symBinAddr: 0x100004EE4, symSize: 0x2C }
  - { offsetInCU: 0xD4FB, offset: 0xD4FB, size: 0x8, addend: 0x0, symName: __ZNKSt3__18ios_base5widthB7v160006Ev, symObjAddr: 0x2320, symBinAddr: 0x100004F10, symSize: 0x18 }
  - { offsetInCU: 0xD523, offset: 0xD523, size: 0x8, addend: 0x0, symName: __ZNSt3__115basic_streambufIcNS_11char_traitsIcEEE5sputnB7v160006EPKcl, symObjAddr: 0x2338, symBinAddr: 0x100004F28, symSize: 0x3C }
  - { offsetInCU: 0xD565, offset: 0xD565, size: 0x8, addend: 0x0, symName: __ZNSt3__112basic_stringIcNS_11char_traitsIcEENS_9allocatorIcEEEC1B7v160006Emc, symObjAddr: 0x2374, symBinAddr: 0x100004F64, symSize: 0x3C }
  - { offsetInCU: 0xD5AD, offset: 0xD5AD, size: 0x8, addend: 0x0, symName: __ZNKSt3__112basic_stringIcNS_11char_traitsIcEENS_9allocatorIcEEE4dataB7v160006Ev, symObjAddr: 0x23B0, symBinAddr: 0x100004FA0, symSize: 0x28 }
  - { offsetInCU: 0xD5D3, offset: 0xD5D3, size: 0x8, addend: 0x0, symName: __ZNSt3__18ios_base5widthB7v160006El, symObjAddr: 0x23D8, symBinAddr: 0x100004FC8, symSize: 0x2C }
  - { offsetInCU: 0xD619, offset: 0xD619, size: 0x8, addend: 0x0, symName: __ZNSt3__112basic_stringIcNS_11char_traitsIcEENS_9allocatorIcEEEC2B7v160006Emc, symObjAddr: 0x2404, symBinAddr: 0x100004FF4, symSize: 0x54 }
  - { offsetInCU: 0xD661, offset: 0xD661, size: 0x8, addend: 0x0, symName: __ZNKSt3__112basic_stringIcNS_11char_traitsIcEENS_9allocatorIcEEE13__get_pointerB7v160006Ev, symObjAddr: 0x246C, symBinAddr: 0x10000505C, symSize: 0x54 }
  - { offsetInCU: 0xD687, offset: 0xD687, size: 0x8, addend: 0x0, symName: __ZNKSt3__112basic_stringIcNS_11char_traitsIcEENS_9allocatorIcEEE9__is_longB7v160006Ev, symObjAddr: 0x24C0, symBinAddr: 0x1000050B0, symSize: 0x74 }
  - { offsetInCU: 0xD6AD, offset: 0xD6AD, size: 0x8, addend: 0x0, symName: __ZNKSt3__112basic_stringIcNS_11char_traitsIcEENS_9allocatorIcEEE18__get_long_pointerB7v160006Ev, symObjAddr: 0x2534, symBinAddr: 0x100005124, symSize: 0x28 }
  - { offsetInCU: 0xD6D3, offset: 0xD6D3, size: 0x8, addend: 0x0, symName: __ZNKSt3__112basic_stringIcNS_11char_traitsIcEENS_9allocatorIcEEE19__get_short_pointerB7v160006Ev, symObjAddr: 0x255C, symBinAddr: 0x10000514C, symSize: 0x28 }
  - { offsetInCU: 0xD6F9, offset: 0xD6F9, size: 0x8, addend: 0x0, symName: __ZNKSt3__117__compressed_pairINS_12basic_stringIcNS_11char_traitsIcEENS_9allocatorIcEEE5__repES5_E5firstB7v160006Ev, symObjAddr: 0x2584, symBinAddr: 0x100005174, symSize: 0x24 }
  - { offsetInCU: 0xD71F, offset: 0xD71F, size: 0x8, addend: 0x0, symName: __ZNKSt3__122__compressed_pair_elemINS_12basic_stringIcNS_11char_traitsIcEENS_9allocatorIcEEE5__repELi0ELb0EE5__getB7v160006Ev, symObjAddr: 0x25A8, symBinAddr: 0x100005198, symSize: 0x14 }
  - { offsetInCU: 0xD745, offset: 0xD745, size: 0x8, addend: 0x0, symName: __ZNSt3__114pointer_traitsIPKcE10pointer_toB7v160006ERS1_, symObjAddr: 0x25BC, symBinAddr: 0x1000051AC, symSize: 0x14 }
  - { offsetInCU: 0xD768, offset: 0xD768, size: 0x8, addend: 0x0, symName: __ZNSt3__119ostreambuf_iteratorIcNS_11char_traitsIcEEEC2B7v160006ERNS_13basic_ostreamIcS2_EE, symObjAddr: 0x25D0, symBinAddr: 0x1000051C0, symSize: 0x68 }
  - { offsetInCU: 0xD7A0, offset: 0xD7A0, size: 0x8, addend: 0x0, symName: __ZNKSt3__19basic_iosIcNS_11char_traitsIcEEE5rdbufB7v160006Ev, symObjAddr: 0x2638, symBinAddr: 0x100005228, symSize: 0x24 }
  - { offsetInCU: 0xD7C8, offset: 0xD7C8, size: 0x8, addend: 0x0, symName: __ZNKSt3__18ios_base5rdbufB7v160006Ev, symObjAddr: 0x265C, symBinAddr: 0x10000524C, symSize: 0x18 }
  - { offsetInCU: 0xD7EE, offset: 0xD7EE, size: 0x8, addend: 0x0, symName: __ZNSt3__111char_traitsIcE11eq_int_typeEii, symObjAddr: 0x2674, symBinAddr: 0x100005264, symSize: 0x28 }
  - { offsetInCU: 0xD81F, offset: 0xD81F, size: 0x8, addend: 0x0, symName: __ZNSt3__111char_traitsIcE3eofEv, symObjAddr: 0x269C, symBinAddr: 0x10000528C, symSize: 0x8 }
  - { offsetInCU: 0xD833, offset: 0xD833, size: 0x8, addend: 0x0, symName: __ZNKSt3__19basic_iosIcNS_11char_traitsIcEEE5widenB7v160006Ec, symObjAddr: 0x26A4, symBinAddr: 0x100005294, symSize: 0x8C }
  - { offsetInCU: 0xD897, offset: 0xD897, size: 0x8, addend: 0x0, symName: __ZNKSt3__15ctypeIcE5widenB7v160006Ec, symObjAddr: 0x275C, symBinAddr: 0x10000534C, symSize: 0x38 }
  - { offsetInCU: 0xD8CC, offset: 0xD8CC, size: 0x8, addend: 0x0, symName: __ZNSt3__18ios_base8setstateB7v160006Ej, symObjAddr: 0x2794, symBinAddr: 0x100005384, symSize: 0x34 }
  - { offsetInCU: 0xD98B, offset: 0xD98B, size: 0x8, addend: 0x0, symName: __ZNKSt3__113basic_istreamIcNS_11char_traitsIcEEE6sentrycvbB7v160006Ev, symObjAddr: 0x27EC, symBinAddr: 0x1000053DC, symSize: 0x1C }
  - { offsetInCU: 0xD9B1, offset: 0xD9B1, size: 0x8, addend: 0x0, symName: __ZNSt3__112basic_stringIcNS_11char_traitsIcEENS_9allocatorIcEEE5clearB7v160006Ev, symObjAddr: 0x2808, symBinAddr: 0x1000053F8, symSize: 0x9C }
  - { offsetInCU: 0xD9D9, offset: 0xD9D9, size: 0x8, addend: 0x0, symName: __ZNKSt3__112basic_stringIcNS_11char_traitsIcEENS_9allocatorIcEEE8max_sizeB7v160006Ev, symObjAddr: 0x28A4, symBinAddr: 0x100005494, symSize: 0xAC }
  - { offsetInCU: 0xDA2C, offset: 0xDA2C, size: 0x8, addend: 0x0, symName: __ZNSt3__114numeric_limitsIlE3maxB7v160006Ev, symObjAddr: 0x2950, symBinAddr: 0x100005540, symSize: 0x14 }
  - { offsetInCU: 0xDA40, offset: 0xDA40, size: 0x8, addend: 0x0, symName: __ZNSt3__115basic_streambufIcNS_11char_traitsIcEEE5sgetcB7v160006Ev, symObjAddr: 0x2964, symBinAddr: 0x100005554, symSize: 0x70 }
  - { offsetInCU: 0xDA66, offset: 0xDA66, size: 0x8, addend: 0x0, symName: __ZNSt3__111char_traitsIcE12to_char_typeEi, symObjAddr: 0x29D4, symBinAddr: 0x1000055C4, symSize: 0x18 }
  - { offsetInCU: 0xDA89, offset: 0xDA89, size: 0x8, addend: 0x0, symName: __ZNKSt3__15ctypeIcE2isB7v160006Ejc, symObjAddr: 0x29EC, symBinAddr: 0x1000055DC, symSize: 0x7C }
  - { offsetInCU: 0xDACD, offset: 0xDACD, size: 0x8, addend: 0x0, symName: __ZNSt3__115basic_streambufIcNS_11char_traitsIcEEE6sbumpcB7v160006Ev, symObjAddr: 0x2A68, symBinAddr: 0x100005658, symSize: 0x78 }
  - { offsetInCU: 0xDAF3, offset: 0xDAF3, size: 0x8, addend: 0x0, symName: __ZNSt3__18ios_base18__setstate_nothrowB7v160006Ej, symObjAddr: 0x2AE0, symBinAddr: 0x1000056D0, symSize: 0x64 }
  - { offsetInCU: 0xDB28, offset: 0xDB28, size: 0x8, addend: 0x0, symName: __ZNKSt3__19basic_iosIcNS_11char_traitsIcEEE10exceptionsB7v160006Ev, symObjAddr: 0x2B44, symBinAddr: 0x100005734, symSize: 0x24 }
  - { offsetInCU: 0xDB4E, offset: 0xDB4E, size: 0x8, addend: 0x0, symName: __ZNSt3__111char_traitsIcE6assignERcRKc, symObjAddr: 0x2B78, symBinAddr: 0x100005768, symSize: 0x24 }
  - { offsetInCU: 0xDB7F, offset: 0xDB7F, size: 0x8, addend: 0x0, symName: __ZNSt3__112basic_stringIcNS_11char_traitsIcEENS_9allocatorIcEEE18__get_long_pointerB7v160006Ev, symObjAddr: 0x2B9C, symBinAddr: 0x10000578C, symSize: 0x28 }
  - { offsetInCU: 0xDBA5, offset: 0xDBA5, size: 0x8, addend: 0x0, symName: __ZNSt3__112basic_stringIcNS_11char_traitsIcEENS_9allocatorIcEEE19__get_short_pointerB7v160006Ev, symObjAddr: 0x2BC4, symBinAddr: 0x1000057B4, symSize: 0x28 }
  - { offsetInCU: 0xDBCB, offset: 0xDBCB, size: 0x8, addend: 0x0, symName: __ZNSt3__112basic_stringIcNS_11char_traitsIcEENS_9allocatorIcEEE16__set_short_sizeB7v160006Em, symObjAddr: 0x2BEC, symBinAddr: 0x1000057DC, symSize: 0x78 }
  - { offsetInCU: 0xDC00, offset: 0xDC00, size: 0x8, addend: 0x0, symName: __ZNSt3__114pointer_traitsIPcE10pointer_toB7v160006ERc, symObjAddr: 0x2C64, symBinAddr: 0x100005854, symSize: 0x14 }
  - { offsetInCU: 0xDC23, offset: 0xDC23, size: 0x8, addend: 0x0, symName: __ZNKSt3__112basic_stringIcNS_11char_traitsIcEENS_9allocatorIcEEE7__allocB7v160006Ev, symObjAddr: 0x2C78, symBinAddr: 0x100005868, symSize: 0x24 }
  - { offsetInCU: 0xDC49, offset: 0xDC49, size: 0x8, addend: 0x0, symName: __ZNSt3__114numeric_limitsImE3maxB7v160006Ev, symObjAddr: 0x2C9C, symBinAddr: 0x10000588C, symSize: 0x14 }
  - { offsetInCU: 0xDC5D, offset: 0xDC5D, size: 0x8, addend: 0x0, symName: __ZNKSt3__117__compressed_pairINS_12basic_stringIcNS_11char_traitsIcEENS_9allocatorIcEEE5__repES5_E6secondB7v160006Ev, symObjAddr: 0x2CB0, symBinAddr: 0x1000058A0, symSize: 0x24 }
  - { offsetInCU: 0xDC83, offset: 0xDC83, size: 0x8, addend: 0x0, symName: __ZNKSt3__122__compressed_pair_elemINS_9allocatorIcEELi1ELb1EE5__getB7v160006Ev, symObjAddr: 0x2CD4, symBinAddr: 0x1000058C4, symSize: 0x14 }
  - { offsetInCU: 0xDCA9, offset: 0xDCA9, size: 0x8, addend: 0x0, symName: __ZNSt3__123__libcpp_numeric_limitsImLb1EE3maxB7v160006Ev, symObjAddr: 0x2CE8, symBinAddr: 0x1000058D8, symSize: 0x8 }
  - { offsetInCU: 0xDCBD, offset: 0xDCBD, size: 0x8, addend: 0x0, symName: __ZNSt3__123__libcpp_numeric_limitsIlLb1EE3maxB7v160006Ev, symObjAddr: 0x2CF0, symBinAddr: 0x1000058E0, symSize: 0x8 }
  - { offsetInCU: 0xDCD1, offset: 0xDCD1, size: 0x8, addend: 0x0, symName: __ZNSt3__111char_traitsIcE11to_int_typeEc, symObjAddr: 0x2CF8, symBinAddr: 0x1000058E8, symSize: 0x14 }
  - { offsetInCU: 0xDCF3, offset: 0xDCF3, size: 0x8, addend: 0x0, symName: __Z7isasciii, symObjAddr: 0x2D0C, symBinAddr: 0x1000058FC, symSize: 0x24 }
  - { offsetInCU: 0xDD20, offset: 0xDD20, size: 0x8, addend: 0x0, symName: __ZNKSt3__18ios_base10exceptionsB7v160006Ev, symObjAddr: 0x2D30, symBinAddr: 0x100005920, symSize: 0x18 }
  - { offsetInCU: 0xDD48, offset: 0xDD48, size: 0x8, addend: 0x0, symName: __ZNSt3__112basic_stringIcNS_11char_traitsIcEENS_9allocatorIcEEE13__get_pointerB7v160006Ev, symObjAddr: 0x2D48, symBinAddr: 0x100005938, symSize: 0x54 }
  - { offsetInCU: 0xDD6E, offset: 0xDD6E, size: 0x8, addend: 0x0, symName: __ZNSt3__113unordered_mapIciNS_4hashIcEENS_8equal_toIcEENS_9allocatorINS_4pairIKciEEEEE4findB7v160006ERS7_, symObjAddr: 0x2D9C, symBinAddr: 0x10000598C, symSize: 0x40 }
  - { offsetInCU: 0xDDA3, offset: 0xDDA3, size: 0x8, addend: 0x0, symName: __ZNKSt3__119__hash_map_iteratorINS_15__hash_iteratorIPNS_11__hash_nodeINS_17__hash_value_typeIciEEPvEEEEEptB7v160006Ev, symObjAddr: 0x2DDC, symBinAddr: 0x1000059CC, symSize: 0x2C }
  - { offsetInCU: 0xDDC9, offset: 0xDDC9, size: 0x8, addend: 0x0, symName: __ZNSt3__113unordered_mapIciNS_4hashIcEENS_8equal_toIcEENS_9allocatorINS_4pairIKciEEEEE25__construct_node_with_keyERS7_, symObjAddr: 0x2E08, symBinAddr: 0x1000059F8, symSize: 0x144 }
  - { offsetInCU: 0xDE1F, offset: 0xDE1F, size: 0x8, addend: 0x0, symName: __ZNSt3__112__hash_tableINS_17__hash_value_typeIciEENS_22__unordered_map_hasherIcS2_NS_4hashIcEENS_8equal_toIcEELb1EEENS_21__unordered_map_equalIcS2_S7_S5_Lb1EEENS_9allocatorIS2_EEE20__node_insert_uniqueEPNS_11__hash_nodeIS2_PvEE, symObjAddr: 0x2F4C, symBinAddr: 0x100005B3C, symSize: 0xC8 }
  - { offsetInCU: 0xDE74, offset: 0xDE74, size: 0x8, addend: 0x0, symName: __ZNKSt3__110unique_ptrINS_11__hash_nodeINS_17__hash_value_typeIciEEPvEENS_26__hash_map_node_destructorINS_9allocatorIS5_EEEEE3getB7v160006Ev, symObjAddr: 0x3014, symBinAddr: 0x100005C04, symSize: 0x28 }
  - { offsetInCU: 0xDE9A, offset: 0xDE9A, size: 0x8, addend: 0x0, symName: __ZNSt3__14pairINS_19__hash_map_iteratorINS_15__hash_iteratorIPNS_11__hash_nodeINS_17__hash_value_typeIciEEPvEEEEEEbEC1B7v160006IS9_bEERKNS0_IT_T0_EE, symObjAddr: 0x303C, symBinAddr: 0x100005C2C, symSize: 0x34 }
  - { offsetInCU: 0xDEE4, offset: 0xDEE4, size: 0x8, addend: 0x0, symName: __ZNSt3__110unique_ptrINS_11__hash_nodeINS_17__hash_value_typeIciEEPvEENS_26__hash_map_node_destructorINS_9allocatorIS5_EEEEE7releaseB7v160006Ev, symObjAddr: 0x3070, symBinAddr: 0x100005C60, symSize: 0x44 }
  - { offsetInCU: 0xDF19, offset: 0xDF19, size: 0x8, addend: 0x0, symName: __ZNSt3__110unique_ptrINS_11__hash_nodeINS_17__hash_value_typeIciEEPvEENS_26__hash_map_node_destructorINS_9allocatorIS5_EEEEED1B7v160006Ev, symObjAddr: 0x30B4, symBinAddr: 0x100005CA4, symSize: 0x2C }
  - { offsetInCU: 0xDF43, offset: 0xDF43, size: 0x8, addend: 0x0, symName: __ZNSt3__112__hash_tableINS_17__hash_value_typeIciEENS_22__unordered_map_hasherIcS2_NS_4hashIcEENS_8equal_toIcEELb1EEENS_21__unordered_map_equalIcS2_S7_S5_Lb1EEENS_9allocatorIS2_EEE4findIcEENS_15__hash_iteratorIPNS_11__hash_nodeIS2_PvEEEERKT_, symObjAddr: 0x30E0, symBinAddr: 0x100005CD0, symSize: 0x1B4 }
  - { offsetInCU: 0xDFCE, offset: 0xDFCE, size: 0x8, addend: 0x0, symName: __ZNSt3__119__hash_map_iteratorINS_15__hash_iteratorIPNS_11__hash_nodeINS_17__hash_value_typeIciEEPvEEEEEC1B7v160006ES8_, symObjAddr: 0x3294, symBinAddr: 0x100005E84, symSize: 0x34 }
  - { offsetInCU: 0xE007, offset: 0xE007, size: 0x8, addend: 0x0, symName: __ZNSt3__112__hash_tableINS_17__hash_value_typeIciEENS_22__unordered_map_hasherIcS2_NS_4hashIcEENS_8equal_toIcEELb1EEENS_21__unordered_map_equalIcS2_S7_S5_Lb1EEENS_9allocatorIS2_EEE13hash_functionB7v160006Ev, symObjAddr: 0x32C8, symBinAddr: 0x100005EB8, symSize: 0x28 }
  - { offsetInCU: 0xE02D, offset: 0xE02D, size: 0x8, addend: 0x0, symName: __ZNKSt3__122__unordered_map_hasherIcNS_17__hash_value_typeIciEENS_4hashIcEENS_8equal_toIcEELb1EEclB7v160006ERKc, symObjAddr: 0x32F0, symBinAddr: 0x100005EE0, symSize: 0x30 }
  - { offsetInCU: 0xE062, offset: 0xE062, size: 0x8, addend: 0x0, symName: __ZNKSt3__112__hash_tableINS_17__hash_value_typeIciEENS_22__unordered_map_hasherIcS2_NS_4hashIcEENS_8equal_toIcEELb1EEENS_21__unordered_map_equalIcS2_S7_S5_Lb1EEENS_9allocatorIS2_EEE12bucket_countB7v160006Ev, symObjAddr: 0x3320, symBinAddr: 0x100005F10, symSize: 0x28 }
  - { offsetInCU: 0xE088, offset: 0xE088, size: 0x8, addend: 0x0, symName: __ZNKSt3__110unique_ptrIA_PNS_16__hash_node_baseIPNS_11__hash_nodeINS_17__hash_value_typeIciEEPvEEEENS_25__bucket_list_deallocatorINS_9allocatorIS9_EEEEEixB7v160006Em, symObjAddr: 0x33E0, symBinAddr: 0x100005FD0, symSize: 0x34 }
  - { offsetInCU: 0xE0BD, offset: 0xE0BD, size: 0x8, addend: 0x0, symName: __ZNKSt3__116__hash_node_baseIPNS_11__hash_nodeINS_17__hash_value_typeIciEEPvEEE6__hashB7v160006Ev, symObjAddr: 0x3414, symBinAddr: 0x100006004, symSize: 0x18 }
  - { offsetInCU: 0xE0E3, offset: 0xE0E3, size: 0x8, addend: 0x0, symName: __ZNSt3__112__hash_tableINS_17__hash_value_typeIciEENS_22__unordered_map_hasherIcS2_NS_4hashIcEENS_8equal_toIcEELb1EEENS_21__unordered_map_equalIcS2_S7_S5_Lb1EEENS_9allocatorIS2_EEE6key_eqB7v160006Ev, symObjAddr: 0x342C, symBinAddr: 0x10000601C, symSize: 0x28 }
  - { offsetInCU: 0xE109, offset: 0xE109, size: 0x8, addend: 0x0, symName: __ZNKSt3__121__unordered_map_equalIcNS_17__hash_value_typeIciEENS_8equal_toIcEENS_4hashIcEELb1EEclB7v160006ERKS2_RKc, symObjAddr: 0x3454, symBinAddr: 0x100006044, symSize: 0x48 }
  - { offsetInCU: 0xE14D, offset: 0xE14D, size: 0x8, addend: 0x0, symName: __ZNSt3__115__hash_iteratorIPNS_11__hash_nodeINS_17__hash_value_typeIciEEPvEEEC1B7v160006EPNS_16__hash_node_baseIS6_EEPKv, symObjAddr: 0x349C, symBinAddr: 0x10000608C, symSize: 0x3C }
  - { offsetInCU: 0xE195, offset: 0xE195, size: 0x8, addend: 0x0, symName: __ZNSt3__112__hash_tableINS_17__hash_value_typeIciEENS_22__unordered_map_hasherIcS2_NS_4hashIcEENS_8equal_toIcEELb1EEENS_21__unordered_map_equalIcS2_S7_S5_Lb1EEENS_9allocatorIS2_EEE3endEv, symObjAddr: 0x34D8, symBinAddr: 0x1000060C8, symSize: 0x30 }
  - { offsetInCU: 0xE1BD, offset: 0xE1BD, size: 0x8, addend: 0x0, symName: __ZNSt3__117__compressed_pairImNS_22__unordered_map_hasherIcNS_17__hash_value_typeIciEENS_4hashIcEENS_8equal_toIcEELb1EEEE6secondB7v160006Ev, symObjAddr: 0x3508, symBinAddr: 0x1000060F8, symSize: 0x24 }
  - { offsetInCU: 0xE1E3, offset: 0xE1E3, size: 0x8, addend: 0x0, symName: __ZNSt3__122__compressed_pair_elemINS_22__unordered_map_hasherIcNS_17__hash_value_typeIciEENS_4hashIcEENS_8equal_toIcEELb1EEELi1ELb1EE5__getB7v160006Ev, symObjAddr: 0x352C, symBinAddr: 0x10000611C, symSize: 0x14 }
  - { offsetInCU: 0xE209, offset: 0xE209, size: 0x8, addend: 0x0, symName: __ZNKSt3__14hashIcEclB7v160006Ec, symObjAddr: 0x3540, symBinAddr: 0x100006130, symSize: 0x18 }
  - { offsetInCU: 0xE23E, offset: 0xE23E, size: 0x8, addend: 0x0, symName: __ZNKSt3__110unique_ptrIA_PNS_16__hash_node_baseIPNS_11__hash_nodeINS_17__hash_value_typeIciEEPvEEEENS_25__bucket_list_deallocatorINS_9allocatorIS9_EEEEE11get_deleterB7v160006Ev, symObjAddr: 0x3558, symBinAddr: 0x100006148, symSize: 0x24 }
  - { offsetInCU: 0xE264, offset: 0xE264, size: 0x8, addend: 0x0, symName: __ZNKSt3__125__bucket_list_deallocatorINS_9allocatorIPNS_16__hash_node_baseIPNS_11__hash_nodeINS_17__hash_value_typeIciEEPvEEEEEEE4sizeB7v160006Ev, symObjAddr: 0x357C, symBinAddr: 0x10000616C, symSize: 0x28 }
  - { offsetInCU: 0xE28A, offset: 0xE28A, size: 0x8, addend: 0x0, symName: __ZNKSt3__117__compressed_pairIPPNS_16__hash_node_baseIPNS_11__hash_nodeINS_17__hash_value_typeIciEEPvEEEENS_25__bucket_list_deallocatorINS_9allocatorIS9_EEEEE6secondB7v160006Ev, symObjAddr: 0x35A4, symBinAddr: 0x100006194, symSize: 0x28 }
  - { offsetInCU: 0xE2B0, offset: 0xE2B0, size: 0x8, addend: 0x0, symName: __ZNKSt3__122__compressed_pair_elemINS_25__bucket_list_deallocatorINS_9allocatorIPNS_16__hash_node_baseIPNS_11__hash_nodeINS_17__hash_value_typeIciEEPvEEEEEEEELi1ELb0EE5__getB7v160006Ev, symObjAddr: 0x35CC, symBinAddr: 0x1000061BC, symSize: 0x14 }
  - { offsetInCU: 0xE2D6, offset: 0xE2D6, size: 0x8, addend: 0x0, symName: __ZNKSt3__117__compressed_pairImNS_9allocatorIPNS_16__hash_node_baseIPNS_11__hash_nodeINS_17__hash_value_typeIciEEPvEEEEEEE5firstB7v160006Ev, symObjAddr: 0x35E0, symBinAddr: 0x1000061D0, symSize: 0x24 }
  - { offsetInCU: 0xE2FC, offset: 0xE2FC, size: 0x8, addend: 0x0, symName: __ZNKSt3__122__compressed_pair_elemImLi0ELb0EE5__getB7v160006Ev, symObjAddr: 0x3604, symBinAddr: 0x1000061F4, symSize: 0x14 }
  - { offsetInCU: 0xE322, offset: 0xE322, size: 0x8, addend: 0x0, symName: __ZNKSt3__117__compressed_pairIPPNS_16__hash_node_baseIPNS_11__hash_nodeINS_17__hash_value_typeIciEEPvEEEENS_25__bucket_list_deallocatorINS_9allocatorIS9_EEEEE5firstB7v160006Ev, symObjAddr: 0x3618, symBinAddr: 0x100006208, symSize: 0x24 }
  - { offsetInCU: 0xE348, offset: 0xE348, size: 0x8, addend: 0x0, symName: __ZNKSt3__122__compressed_pair_elemIPPNS_16__hash_node_baseIPNS_11__hash_nodeINS_17__hash_value_typeIciEEPvEEEELi0ELb0EE5__getB7v160006Ev, symObjAddr: 0x363C, symBinAddr: 0x10000622C, symSize: 0x14 }
  - { offsetInCU: 0xE36E, offset: 0xE36E, size: 0x8, addend: 0x0, symName: __ZNSt3__117__compressed_pairIfNS_21__unordered_map_equalIcNS_17__hash_value_typeIciEENS_8equal_toIcEENS_4hashIcEELb1EEEE6secondB7v160006Ev, symObjAddr: 0x3650, symBinAddr: 0x100006240, symSize: 0x24 }
  - { offsetInCU: 0xE394, offset: 0xE394, size: 0x8, addend: 0x0, symName: __ZNSt3__122__compressed_pair_elemINS_21__unordered_map_equalIcNS_17__hash_value_typeIciEENS_8equal_toIcEENS_4hashIcEELb1EEELi1ELb1EE5__getB7v160006Ev, symObjAddr: 0x3674, symBinAddr: 0x100006264, symSize: 0x14 }
  - { offsetInCU: 0xE3BA, offset: 0xE3BA, size: 0x8, addend: 0x0, symName: __ZNKSt3__18equal_toIcEclB7v160006ERKcS3_, symObjAddr: 0x3688, symBinAddr: 0x100006278, symSize: 0x34 }
  - { offsetInCU: 0xE3FE, offset: 0xE3FE, size: 0x8, addend: 0x0, symName: __ZNKSt3__117__hash_value_typeIciE11__get_valueB7v160006Ev, symObjAddr: 0x36BC, symBinAddr: 0x1000062AC, symSize: 0x14 }
  - { offsetInCU: 0xE424, offset: 0xE424, size: 0x8, addend: 0x0, symName: __ZNSt3__115__hash_iteratorIPNS_11__hash_nodeINS_17__hash_value_typeIciEEPvEEEC2B7v160006EPNS_16__hash_node_baseIS6_EEPKv, symObjAddr: 0x36D0, symBinAddr: 0x1000062C0, symSize: 0x24 }
  - { offsetInCU: 0xE46C, offset: 0xE46C, size: 0x8, addend: 0x0, symName: __ZNSt3__119__hash_map_iteratorINS_15__hash_iteratorIPNS_11__hash_nodeINS_17__hash_value_typeIciEEPvEEEEEC2B7v160006ES8_, symObjAddr: 0x36F4, symBinAddr: 0x1000062E4, symSize: 0x20 }
  - { offsetInCU: 0xE4A5, offset: 0xE4A5, size: 0x8, addend: 0x0, symName: __ZNSt3__114pointer_traitsIPNS_4pairIKciEEE10pointer_toB7v160006ERS3_, symObjAddr: 0x3714, symBinAddr: 0x100006304, symSize: 0x14 }
  - { offsetInCU: 0xE4C8, offset: 0xE4C8, size: 0x8, addend: 0x0, symName: __ZNKSt3__115__hash_iteratorIPNS_11__hash_nodeINS_17__hash_value_typeIciEEPvEEEptB7v160006Ev, symObjAddr: 0x3728, symBinAddr: 0x100006318, symSize: 0x30 }
  - { offsetInCU: 0xE4EE, offset: 0xE4EE, size: 0x8, addend: 0x0, symName: __ZNSt3__114pointer_traitsIPNS_17__hash_value_typeIciEEE10pointer_toB7v160006ERS2_, symObjAddr: 0x3758, symBinAddr: 0x100006348, symSize: 0x14 }
  - { offsetInCU: 0xE511, offset: 0xE511, size: 0x8, addend: 0x0, symName: __ZNSt3__116allocator_traitsINS_9allocatorINS_11__hash_nodeINS_17__hash_value_typeIciEEPvEEEEE8allocateB7v160006ERS7_m, symObjAddr: 0x376C, symBinAddr: 0x10000635C, symSize: 0x2C }
  - { offsetInCU: 0xE544, offset: 0xE544, size: 0x8, addend: 0x0, symName: __ZNSt3__126__hash_map_node_destructorINS_9allocatorINS_11__hash_nodeINS_17__hash_value_typeIciEEPvEEEEEC1B7v160006ERS7_, symObjAddr: 0x3798, symBinAddr: 0x100006388, symSize: 0x34 }
  - { offsetInCU: 0xE582, offset: 0xE582, size: 0x8, addend: 0x0, symName: __ZNSt3__110unique_ptrINS_11__hash_nodeINS_17__hash_value_typeIciEEPvEENS_26__hash_map_node_destructorINS_9allocatorIS5_EEEEEC1B7v160006ILb1EvEEPS5_NS_16__dependent_typeINS_27__unique_ptr_deleter_sfinaeIS9_EEXT_EE20__good_rval_ref_typeE, symObjAddr: 0x37CC, symBinAddr: 0x1000063BC, symSize: 0x3C }
  - { offsetInCU: 0xE5D3, offset: 0xE5D3, size: 0x8, addend: 0x0, symName: __ZNSt3__116allocator_traitsINS_9allocatorINS_11__hash_nodeINS_17__hash_value_typeIciEEPvEEEEE9constructB7v160006IKcJRSA_EvEEvRS7_PT_DpOT0_, symObjAddr: 0x3808, symBinAddr: 0x1000063F8, symSize: 0x34 }
  - { offsetInCU: 0xE62A, offset: 0xE62A, size: 0x8, addend: 0x0, symName: __ZNKSt3__110unique_ptrINS_11__hash_nodeINS_17__hash_value_typeIciEEPvEENS_26__hash_map_node_destructorINS_9allocatorIS5_EEEEEptB7v160006Ev, symObjAddr: 0x383C, symBinAddr: 0x10000642C, symSize: 0x28 }
  - { offsetInCU: 0xE650, offset: 0xE650, size: 0x8, addend: 0x0, symName: __ZNSt3__110unique_ptrINS_11__hash_nodeINS_17__hash_value_typeIciEEPvEENS_26__hash_map_node_destructorINS_9allocatorIS5_EEEEE11get_deleterB7v160006Ev, symObjAddr: 0x3864, symBinAddr: 0x100006454, symSize: 0x24 }
  - { offsetInCU: 0xE676, offset: 0xE676, size: 0x8, addend: 0x0, symName: __ZNSt3__116allocator_traitsINS_9allocatorINS_11__hash_nodeINS_17__hash_value_typeIciEEPvEEEEE9constructB7v160006IiJEvEEvRS7_PT_DpOT0_, symObjAddr: 0x3888, symBinAddr: 0x100006478, symSize: 0x2C }
  - { offsetInCU: 0xE6B8, offset: 0xE6B8, size: 0x8, addend: 0x0, symName: __ZNSt3__19allocatorINS_11__hash_nodeINS_17__hash_value_typeIciEEPvEEE8allocateB7v160006Em, symObjAddr: 0x38B4, symBinAddr: 0x1000064A4, symSize: 0x8C }
  - { offsetInCU: 0xE6F6, offset: 0xE6F6, size: 0x8, addend: 0x0, symName: __ZNSt3__116allocator_traitsINS_9allocatorINS_11__hash_nodeINS_17__hash_value_typeIciEEPvEEEEE8max_sizeB7v160006IS7_vEEmRKS7_, symObjAddr: 0x3940, symBinAddr: 0x100006530, symSize: 0x24 }
  - { offsetInCU: 0xE724, offset: 0xE724, size: 0x8, addend: 0x0, symName: __ZNKSt3__19allocatorINS_11__hash_nodeINS_17__hash_value_typeIciEEPvEEE8max_sizeB7v160006Ev, symObjAddr: 0x3964, symBinAddr: 0x100006554, symSize: 0x18 }
  - { offsetInCU: 0xE74A, offset: 0xE74A, size: 0x8, addend: 0x0, symName: __ZNSt3__126__hash_map_node_destructorINS_9allocatorINS_11__hash_nodeINS_17__hash_value_typeIciEEPvEEEEEC2B7v160006ERS7_, symObjAddr: 0x397C, symBinAddr: 0x10000656C, symSize: 0x28 }
  - { offsetInCU: 0xE783, offset: 0xE783, size: 0x8, addend: 0x0, symName: __ZNSt3__110unique_ptrINS_11__hash_nodeINS_17__hash_value_typeIciEEPvEENS_26__hash_map_node_destructorINS_9allocatorIS5_EEEEEC2B7v160006ILb1EvEEPS5_NS_16__dependent_typeINS_27__unique_ptr_deleter_sfinaeIS9_EEXT_EE20__good_rval_ref_typeE, symObjAddr: 0x39A4, symBinAddr: 0x100006594, symSize: 0x5C }
  - { offsetInCU: 0xE7D4, offset: 0xE7D4, size: 0x8, addend: 0x0, symName: __ZNSt3__117__compressed_pairIPNS_11__hash_nodeINS_17__hash_value_typeIciEEPvEENS_26__hash_map_node_destructorINS_9allocatorIS5_EEEEEC1B7v160006IRS6_SA_EEOT_OT0_, symObjAddr: 0x3A00, symBinAddr: 0x1000065F0, symSize: 0x3C }
  - { offsetInCU: 0xE82C, offset: 0xE82C, size: 0x8, addend: 0x0, symName: __ZNSt3__117__compressed_pairIPNS_11__hash_nodeINS_17__hash_value_typeIciEEPvEENS_26__hash_map_node_destructorINS_9allocatorIS5_EEEEEC2B7v160006IRS6_SA_EEOT_OT0_, symObjAddr: 0x3A3C, symBinAddr: 0x10000662C, symSize: 0x48 }
  - { offsetInCU: 0xE884, offset: 0xE884, size: 0x8, addend: 0x0, symName: __ZNSt3__122__compressed_pair_elemIPNS_11__hash_nodeINS_17__hash_value_typeIciEEPvEELi0ELb0EEC2B7v160006IRS6_vEEOT_, symObjAddr: 0x3A84, symBinAddr: 0x100006674, symSize: 0x24 }
  - { offsetInCU: 0xE8C6, offset: 0xE8C6, size: 0x8, addend: 0x0, symName: __ZNSt3__122__compressed_pair_elemINS_26__hash_map_node_destructorINS_9allocatorINS_11__hash_nodeINS_17__hash_value_typeIciEEPvEEEEEELi1ELb0EEC2B7v160006IS9_vEEOT_, symObjAddr: 0x3AA8, symBinAddr: 0x100006698, symSize: 0x24 }
  - { offsetInCU: 0xE908, offset: 0xE908, size: 0x8, addend: 0x0, symName: __ZNSt3__19allocatorINS_11__hash_nodeINS_17__hash_value_typeIciEEPvEEE9constructB7v160006IKcJRS8_EEEvPT_DpOT0_, symObjAddr: 0x3ACC, symBinAddr: 0x1000066BC, symSize: 0x28 }
  - { offsetInCU: 0xE95E, offset: 0xE95E, size: 0x8, addend: 0x0, symName: __ZNKSt3__117__compressed_pairIPNS_11__hash_nodeINS_17__hash_value_typeIciEEPvEENS_26__hash_map_node_destructorINS_9allocatorIS5_EEEEE5firstB7v160006Ev, symObjAddr: 0x3AF4, symBinAddr: 0x1000066E4, symSize: 0x24 }
  - { offsetInCU: 0xE984, offset: 0xE984, size: 0x8, addend: 0x0, symName: __ZNKSt3__122__compressed_pair_elemIPNS_11__hash_nodeINS_17__hash_value_typeIciEEPvEELi0ELb0EE5__getB7v160006Ev, symObjAddr: 0x3B18, symBinAddr: 0x100006708, symSize: 0x14 }
  - { offsetInCU: 0xE9AA, offset: 0xE9AA, size: 0x8, addend: 0x0, symName: __ZNSt3__117__compressed_pairIPNS_11__hash_nodeINS_17__hash_value_typeIciEEPvEENS_26__hash_map_node_destructorINS_9allocatorIS5_EEEEE6secondB7v160006Ev, symObjAddr: 0x3B2C, symBinAddr: 0x10000671C, symSize: 0x28 }
  - { offsetInCU: 0xE9D0, offset: 0xE9D0, size: 0x8, addend: 0x0, symName: __ZNSt3__122__compressed_pair_elemINS_26__hash_map_node_destructorINS_9allocatorINS_11__hash_nodeINS_17__hash_value_typeIciEEPvEEEEEELi1ELb0EE5__getB7v160006Ev, symObjAddr: 0x3B54, symBinAddr: 0x100006744, symSize: 0x14 }
  - { offsetInCU: 0xE9F6, offset: 0xE9F6, size: 0x8, addend: 0x0, symName: __ZNSt3__19allocatorINS_11__hash_nodeINS_17__hash_value_typeIciEEPvEEE9constructB7v160006IiJEEEvPT_DpOT0_, symObjAddr: 0x3B68, symBinAddr: 0x100006758, symSize: 0x1C }
  - { offsetInCU: 0xEA38, offset: 0xEA38, size: 0x8, addend: 0x0, symName: __ZNKSt3__122__unordered_map_hasherIcNS_17__hash_value_typeIciEENS_4hashIcEENS_8equal_toIcEELb1EEclB7v160006ERKS2_, symObjAddr: 0x3B84, symBinAddr: 0x100006774, symSize: 0x40 }
  - { offsetInCU: 0xEA6D, offset: 0xEA6D, size: 0x8, addend: 0x0, symName: __ZNSt3__112__hash_tableINS_17__hash_value_typeIciEENS_22__unordered_map_hasherIcS2_NS_4hashIcEENS_8equal_toIcEELb1EEENS_21__unordered_map_equalIcS2_S7_S5_Lb1EEENS_9allocatorIS2_EEE28__node_insert_unique_prepareB7v160006EmRS2_, symObjAddr: 0x3BC4, symBinAddr: 0x1000067B4, symSize: 0x244 }
  - { offsetInCU: 0xEAEF, offset: 0xEAEF, size: 0x8, addend: 0x0, symName: __ZNSt3__112__hash_tableINS_17__hash_value_typeIciEENS_22__unordered_map_hasherIcS2_NS_4hashIcEENS_8equal_toIcEELb1EEENS_21__unordered_map_equalIcS2_S7_S5_Lb1EEENS_9allocatorIS2_EEE28__node_insert_unique_performB7v160006EPNS_11__hash_nodeIS2_PvEE, symObjAddr: 0x3E08, symBinAddr: 0x1000069F8, symSize: 0x154 }
  - { offsetInCU: 0xEB53, offset: 0xEB53, size: 0x8, addend: 0x0, symName: __ZNSt3__116__hash_node_baseIPNS_11__hash_nodeINS_17__hash_value_typeIciEEPvEEE5__ptrB7v160006Ev, symObjAddr: 0x3F5C, symBinAddr: 0x100006B4C, symSize: 0x24 }
  - { offsetInCU: 0xEB79, offset: 0xEB79, size: 0x8, addend: 0x0, symName: __ZNSt3__14pairINS_15__hash_iteratorIPNS_11__hash_nodeINS_17__hash_value_typeIciEEPvEEEEbEC1B7v160006ERKS8_RKb, symObjAddr: 0x3F80, symBinAddr: 0x100006B70, symSize: 0x3C }
  - { offsetInCU: 0xEBBF, offset: 0xEBBF, size: 0x8, addend: 0x0, symName: __ZNKSt3__121__unordered_map_equalIcNS_17__hash_value_typeIciEENS_8equal_toIcEENS_4hashIcEELb1EEclB7v160006ERKS2_S9_, symObjAddr: 0x3FBC, symBinAddr: 0x100006BAC, symSize: 0x54 }
  - { offsetInCU: 0xEC03, offset: 0xEC03, size: 0x8, addend: 0x0, symName: __ZNSt3__112__hash_tableINS_17__hash_value_typeIciEENS_22__unordered_map_hasherIcS2_NS_4hashIcEENS_8equal_toIcEELb1EEENS_21__unordered_map_equalIcS2_S7_S5_Lb1EEENS_9allocatorIS2_EEE4sizeB7v160006Ev, symObjAddr: 0x4010, symBinAddr: 0x100006C00, symSize: 0x28 }
  - { offsetInCU: 0xEC29, offset: 0xEC29, size: 0x8, addend: 0x0, symName: __ZNSt3__112__hash_tableINS_17__hash_value_typeIciEENS_22__unordered_map_hasherIcS2_NS_4hashIcEENS_8equal_toIcEELb1EEENS_21__unordered_map_equalIcS2_S7_S5_Lb1EEENS_9allocatorIS2_EEE15max_load_factorB7v160006Ev, symObjAddr: 0x4038, symBinAddr: 0x100006C28, symSize: 0x28 }
  - { offsetInCU: 0xEC4F, offset: 0xEC4F, size: 0x8, addend: 0x0, symName: __ZNSt3__112__hash_tableINS_17__hash_value_typeIciEENS_22__unordered_map_hasherIcS2_NS_4hashIcEENS_8equal_toIcEELb1EEENS_21__unordered_map_equalIcS2_S7_S5_Lb1EEENS_9allocatorIS2_EEE15__rehash_uniqueB7v160006Em, symObjAddr: 0x4060, symBinAddr: 0x100006C50, symSize: 0x2C }
  - { offsetInCU: 0xEC83, offset: 0xEC83, size: 0x8, addend: 0x0, symName: __Z4ceilB7v160006f, symObjAddr: 0x4108, symBinAddr: 0x100006CF8, symSize: 0x18 }
  - { offsetInCU: 0xECB2, offset: 0xECB2, size: 0x8, addend: 0x0, symName: __ZNSt3__117__compressed_pairImNS_22__unordered_map_hasherIcNS_17__hash_value_typeIciEENS_4hashIcEENS_8equal_toIcEELb1EEEE5firstB7v160006Ev, symObjAddr: 0x4120, symBinAddr: 0x100006D10, symSize: 0x24 }
  - { offsetInCU: 0xECD8, offset: 0xECD8, size: 0x8, addend: 0x0, symName: __ZNSt3__117__compressed_pairIfNS_21__unordered_map_equalIcNS_17__hash_value_typeIciEENS_8equal_toIcEENS_4hashIcEELb1EEEE5firstB7v160006Ev, symObjAddr: 0x4144, symBinAddr: 0x100006D34, symSize: 0x24 }
  - { offsetInCU: 0xECFE, offset: 0xECFE, size: 0x8, addend: 0x0, symName: __ZNSt3__122__compressed_pair_elemIfLi0ELb0EE5__getB7v160006Ev, symObjAddr: 0x4168, symBinAddr: 0x100006D58, symSize: 0x14 }
  - { offsetInCU: 0xED24, offset: 0xED24, size: 0x8, addend: 0x0, symName: __ZNSt3__112__hash_tableINS_17__hash_value_typeIciEENS_22__unordered_map_hasherIcS2_NS_4hashIcEENS_8equal_toIcEELb1EEENS_21__unordered_map_equalIcS2_S7_S5_Lb1EEENS_9allocatorIS2_EEE8__rehashILb1EEEvm, symObjAddr: 0x417C, symBinAddr: 0x100006D6C, symSize: 0x1A8 }
  - { offsetInCU: 0xED74, offset: 0xED74, size: 0x8, addend: 0x0, symName: __ZNSt3__112__hash_tableINS_17__hash_value_typeIciEENS_22__unordered_map_hasherIcS2_NS_4hashIcEENS_8equal_toIcEELb1EEENS_21__unordered_map_equalIcS2_S7_S5_Lb1EEENS_9allocatorIS2_EEE11__do_rehashILb1EEEvm, symObjAddr: 0x4324, symBinAddr: 0x100006F14, symSize: 0x290 }
  - { offsetInCU: 0xEE5B, offset: 0xEE5B, size: 0x8, addend: 0x0, symName: __ZNSt3__110unique_ptrIA_PNS_16__hash_node_baseIPNS_11__hash_nodeINS_17__hash_value_typeIciEEPvEEEENS_25__bucket_list_deallocatorINS_9allocatorIS9_EEEEE11get_deleterB7v160006Ev, symObjAddr: 0x4630, symBinAddr: 0x100007220, symSize: 0x24 }
  - { offsetInCU: 0xEE81, offset: 0xEE81, size: 0x8, addend: 0x0, symName: __ZNSt3__110unique_ptrIA_PNS_16__hash_node_baseIPNS_11__hash_nodeINS_17__hash_value_typeIciEEPvEEEENS_25__bucket_list_deallocatorINS_9allocatorIS9_EEEEE5resetB7v160006IPS9_EENS_9enable_ifIXsr28_CheckArrayPointerConversionIT_EE5valueEvE4typeESJ_, symObjAddr: 0x4654, symBinAddr: 0x100007244, symSize: 0x78 }
  - { offsetInCU: 0xEECE, offset: 0xEECE, size: 0x8, addend: 0x0, symName: __ZNSt3__116allocator_traitsINS_9allocatorIPNS_16__hash_node_baseIPNS_11__hash_nodeINS_17__hash_value_typeIciEEPvEEEEEEE8allocateB7v160006ERSB_m, symObjAddr: 0x46CC, symBinAddr: 0x1000072BC, symSize: 0x2C }
  - { offsetInCU: 0xEF01, offset: 0xEF01, size: 0x8, addend: 0x0, symName: __ZNSt3__19allocatorIPNS_16__hash_node_baseIPNS_11__hash_nodeINS_17__hash_value_typeIciEEPvEEEEE8allocateB7v160006Em, symObjAddr: 0x46F8, symBinAddr: 0x1000072E8, symSize: 0x84 }
  - { offsetInCU: 0xEF3F, offset: 0xEF3F, size: 0x8, addend: 0x0, symName: __ZNSt3__116allocator_traitsINS_9allocatorIPNS_16__hash_node_baseIPNS_11__hash_nodeINS_17__hash_value_typeIciEEPvEEEEEEE8max_sizeB7v160006ISB_vEEmRKSB_, symObjAddr: 0x477C, symBinAddr: 0x10000736C, symSize: 0x24 }
  - { offsetInCU: 0xEF6D, offset: 0xEF6D, size: 0x8, addend: 0x0, symName: __ZNKSt3__19allocatorIPNS_16__hash_node_baseIPNS_11__hash_nodeINS_17__hash_value_typeIciEEPvEEEEE8max_sizeB7v160006Ev, symObjAddr: 0x47A0, symBinAddr: 0x100007390, symSize: 0x14 }
  - { offsetInCU: 0xEF9D, offset: 0xEF9D, size: 0x8, addend: 0x0, symName: __ZNKSt3__16__lessImmEclB7v160006ERKmS3_, symObjAddr: 0x4824, symBinAddr: 0x100007414, symSize: 0x34 }
  - { offsetInCU: 0xEFDF, offset: 0xEFDF, size: 0x8, addend: 0x0, symName: __ZNSt3__14pairINS_15__hash_iteratorIPNS_11__hash_nodeINS_17__hash_value_typeIciEEPvEEEEbEC2B7v160006ERKS8_RKb, symObjAddr: 0x4858, symBinAddr: 0x100007448, symSize: 0x38 }
  - { offsetInCU: 0xF025, offset: 0xF025, size: 0x8, addend: 0x0, symName: __ZNSt3__14pairINS_19__hash_map_iteratorINS_15__hash_iteratorIPNS_11__hash_nodeINS_17__hash_value_typeIciEEPvEEEEEEbEC2B7v160006IS9_bEERKNS0_IT_T0_EE, symObjAddr: 0x4890, symBinAddr: 0x100007480, symSize: 0x50 }
  - { offsetInCU: 0xF06F, offset: 0xF06F, size: 0x8, addend: 0x0, symName: __ZNSt3__117__compressed_pairIPNS_11__hash_nodeINS_17__hash_value_typeIciEEPvEENS_26__hash_map_node_destructorINS_9allocatorIS5_EEEEE5firstB7v160006Ev, symObjAddr: 0x48E0, symBinAddr: 0x1000074D0, symSize: 0x24 }
  - { offsetInCU: 0xF095, offset: 0xF095, size: 0x8, addend: 0x0, symName: __ZNSt3__122__compressed_pair_elemIPNS_11__hash_nodeINS_17__hash_value_typeIciEEPvEELi0ELb0EE5__getB7v160006Ev, symObjAddr: 0x4904, symBinAddr: 0x1000074F4, symSize: 0x14 }
  - { offsetInCU: 0xF0BB, offset: 0xF0BB, size: 0x8, addend: 0x0, symName: __ZNSt3__110unique_ptrINS_11__hash_nodeINS_17__hash_value_typeIciEEPvEENS_26__hash_map_node_destructorINS_9allocatorIS5_EEEEED2B7v160006Ev, symObjAddr: 0x4918, symBinAddr: 0x100007508, symSize: 0x30 }
  - { offsetInCU: 0xF0E5, offset: 0xF0E5, size: 0x8, addend: 0x0, symName: __ZNSt3__110unique_ptrINS_11__hash_nodeINS_17__hash_value_typeIciEEPvEENS_26__hash_map_node_destructorINS_9allocatorIS5_EEEEE5resetB7v160006EPS5_, symObjAddr: 0x4948, symBinAddr: 0x100007538, symSize: 0x78 }
  - { offsetInCU: 0xF129, offset: 0xF129, size: 0x8, addend: 0x0, symName: __ZNSt3__126__hash_map_node_destructorINS_9allocatorINS_11__hash_nodeINS_17__hash_value_typeIciEEPvEEEEEclB7v160006EPS6_, symObjAddr: 0x49C0, symBinAddr: 0x1000075B0, symSize: 0xE4 }
  - { offsetInCU: 0xF15E, offset: 0xF15E, size: 0x8, addend: 0x0, symName: __ZNSt3__116allocator_traitsINS_9allocatorINS_11__hash_nodeINS_17__hash_value_typeIciEEPvEEEEE7destroyB7v160006IivvEEvRS7_PT_, symObjAddr: 0x4AA4, symBinAddr: 0x100007694, symSize: 0x14 }
  - { offsetInCU: 0xF199, offset: 0xF199, size: 0x8, addend: 0x0, symName: __ZNSt3__116allocator_traitsINS_9allocatorINS_11__hash_nodeINS_17__hash_value_typeIciEEPvEEEEE7destroyB7v160006IKcvvEEvRS7_PT_, symObjAddr: 0x4AB8, symBinAddr: 0x1000076A8, symSize: 0x14 }
  - { offsetInCU: 0xF1D4, offset: 0xF1D4, size: 0x8, addend: 0x0, symName: __ZNSt3__112__hash_tableINS_17__hash_value_typeIciEENS_22__unordered_map_hasherIcS2_NS_4hashIcEENS_8equal_toIcEELb1EEENS_21__unordered_map_equalIcS2_S7_S5_Lb1EEENS_9allocatorIS2_EEE5beginEv, symObjAddr: 0x4ACC, symBinAddr: 0x1000076BC, symSize: 0x40 }
  - { offsetInCU: 0xF1FC, offset: 0xF1FC, size: 0x8, addend: 0x0, symName: __ZNSt3__115__hash_iteratorIPNS_11__hash_nodeINS_17__hash_value_typeIciEEPvEEEppB7v160006Ev, symObjAddr: 0x4B70, symBinAddr: 0x100007760, symSize: 0x20 }
...
