---
triple:          'arm64-apple-darwin'
binary-path:     '/Users/rupeshkumar/Desktop/CPP_DSA/TCS/output/TotalNumber'
relocations:
  - { offsetInCU: 0x2DC1, offset: 0x2DC1, size: 0x8, addend: 0x0, symName: __ZNSt3__124__put_character_sequenceB7v160006IcNS_11char_traitsIcEEEERNS_13basic_ostreamIT_T0_EES7_PKS4_m, symObjAddr: 0x6D8, symBinAddr: 0x100000FD8, symSize: 0x1F4 }
  - { offsetInCU: 0x616C, offset: 0x616C, size: 0x8, addend: 0x0, symName: __ZNSt3__13maxB7v160006IiEERKT_S3_S3_, symObjAddr: 0x3BC, symBinAddr: 0x100000CBC, symSize: 0x2C }
  - { offsetInCU: 0x61AF, offset: 0x61AF, size: 0x8, addend: 0x0, symName: __ZNSt3__13minB7v160006IiEERKT_S3_S3_, symObjAddr: 0x3E8, symBinAddr: 0x100000CE8, symSize: 0x2C }
  - { offsetInCU: 0x61F2, offset: 0x61F2, size: 0x8, addend: 0x0, symName: __ZNSt3__1lsB7v160006INS_11char_traitsIcEEEERNS_13basic_ostreamIcT_EES6_PKc, symObjAddr: 0x414, symBinAddr: 0x100000D14, symSize: 0x48 }
  - { offsetInCU: 0x6238, offset: 0x6238, size: 0x8, addend: 0x0, symName: __ZNSt3__14endlB7v160006IcNS_11char_traitsIcEEEERNS_13basic_ostreamIT_T0_EES7_, symObjAddr: 0x488, symBinAddr: 0x100000D88, symSize: 0x58 }
  - { offsetInCU: 0x6278, offset: 0x6278, size: 0x8, addend: 0x0, symName: __ZNSt3__13maxB7v160006IiNS_6__lessIiiEEEERKT_S5_S5_T0_, symObjAddr: 0x5FC, symBinAddr: 0x100000EFC, symSize: 0x54 }
  - { offsetInCU: 0x630D, offset: 0x630D, size: 0x8, addend: 0x0, symName: __ZNSt3__13minB7v160006IiNS_6__lessIiiEEEERKT_S5_S5_T0_, symObjAddr: 0x684, symBinAddr: 0x100000F84, symSize: 0x54 }
  - { offsetInCU: 0x6367, offset: 0x6367, size: 0x8, addend: 0x0, symName: __ZNSt3__116__pad_and_outputB7v160006IcNS_11char_traitsIcEEEENS_19ostreambuf_iteratorIT_T0_EES6_PKS4_S8_S8_RNS_8ios_baseES4_, symObjAddr: 0x930, symBinAddr: 0x100001230, symSize: 0x248 }
  - { offsetInCU: 0x6436, offset: 0x6436, size: 0x8, addend: 0x0, symName: __ZNSt3__119__debug_db_insert_cB7v160006INS_12basic_stringIcNS_11char_traitsIcEENS_9allocatorIcEEEEEEvPT_, symObjAddr: 0xDEC, symBinAddr: 0x1000016EC, symSize: 0x10 }
  - { offsetInCU: 0x6467, offset: 0x6467, size: 0x8, addend: 0x0, symName: __ZNSt3__112__to_addressB7v160006IKcEEPT_S3_, symObjAddr: 0xEB8, symBinAddr: 0x1000017B8, symSize: 0x14 }
  - { offsetInCU: 0x649C, offset: 0x649C, size: 0x8, addend: 0x0, symName: __ZNSt3__130__libcpp_is_constant_evaluatedB7v160006Ev, symObjAddr: 0xFE4, symBinAddr: 0x1000018E4, symSize: 0xC }
  - { offsetInCU: 0x64EC, offset: 0x64EC, size: 0x8, addend: 0x0, symName: __ZNSt3__19use_facetB7v160006INS_5ctypeIcEEEERKT_RKNS_6localeE, symObjAddr: 0x119C, symBinAddr: 0x100001A9C, symSize: 0x2C }
  - { offsetInCU: 0x69BB, offset: 0x69BB, size: 0x8, addend: 0x0, symName: __ZNSt3__118__constexpr_strlenB7v160006EPKc, symObjAddr: 0x1234, symBinAddr: 0x100001B34, symSize: 0x24 }
  - { offsetInCU: 0x69E7, offset: 0x69E7, size: 0x8, addend: 0x0, symName: __ZNSt3__119__debug_db_insert_cB7v160006INS_6vectorIiNS_9allocatorIiEEEEEEvPT_, symObjAddr: 0x12E0, symBinAddr: 0x100001BE0, symSize: 0x10 }
  - { offsetInCU: 0x6A18, offset: 0x6A18, size: 0x8, addend: 0x0, symName: __ZNSt3__118__debug_db_erase_cB7v160006INS_6vectorIiNS_9allocatorIiEEEEEEvPT_, symObjAddr: 0x159C, symBinAddr: 0x100001E9C, symSize: 0x10 }
  - { offsetInCU: 0x6A49, offset: 0x6A49, size: 0x8, addend: 0x0, symName: __ZNSt3__112__to_addressB7v160006IiEEPT_S2_, symObjAddr: 0x16B8, symBinAddr: 0x100001FB8, symSize: 0x14 }
  - { offsetInCU: 0x6A7E, offset: 0x6A7E, size: 0x8, addend: 0x0, symName: __ZNSt3__119__libcpp_deallocateB7v160006EPvmm, symObjAddr: 0x181C, symBinAddr: 0x10000211C, symSize: 0x30 }
  - { offsetInCU: 0x6AC6, offset: 0x6AC6, size: 0x8, addend: 0x0, symName: __ZNSt3__127__do_deallocate_handle_sizeB7v160006IJEEEvPvmDpT_, symObjAddr: 0x184C, symBinAddr: 0x10000214C, symSize: 0x28 }
  - { offsetInCU: 0x6B04, offset: 0x6B04, size: 0x8, addend: 0x0, symName: __ZNSt3__124__libcpp_operator_deleteB7v160006IJPvEEEvDpT_, symObjAddr: 0x1874, symBinAddr: 0x100002174, symSize: 0x24 }
  - { offsetInCU: 0x6B39, offset: 0x6B39, size: 0x8, addend: 0x0, symName: __ZNSt3__13maxB7v160006ImEERKT_S3_S3_, symObjAddr: 0x1EFC, symBinAddr: 0x1000027FC, symSize: 0x2C }
  - { offsetInCU: 0x6B7C, offset: 0x6B7C, size: 0x8, addend: 0x0, symName: __ZNSt3__13minB7v160006ImEERKT_S3_S3_, symObjAddr: 0x1F28, symBinAddr: 0x100002828, symSize: 0x2C }
  - { offsetInCU: 0x6DC0, offset: 0x6DC0, size: 0x8, addend: 0x0, symName: __ZNSt3__13minB7v160006ImNS_6__lessImmEEEERKT_S5_S5_T0_, symObjAddr: 0x1FB4, symBinAddr: 0x1000028B4, symSize: 0x54 }
  - { offsetInCU: 0x6E55, offset: 0x6E55, size: 0x8, addend: 0x0, symName: __ZNSt3__120__throw_length_errorB7v160006EPKc, symObjAddr: 0x2090, symBinAddr: 0x100002990, symSize: 0x64 }
  - { offsetInCU: 0x6E7D, offset: 0x6E7D, size: 0x8, addend: 0x0, symName: __ZNSt3__13maxB7v160006ImNS_6__lessImmEEEERKT_S5_S5_T0_, symObjAddr: 0x2174, symBinAddr: 0x100002A74, symSize: 0x54 }
  - { offsetInCU: 0x6ED7, offset: 0x6ED7, size: 0x8, addend: 0x0, symName: __ZNSt3__119__allocate_at_leastB7v160006INS_9allocatorIiEEEENS_19__allocation_resultINS_16allocator_traitsIT_E7pointerEEERS5_m, symObjAddr: 0x22D8, symBinAddr: 0x100002BD8, symSize: 0x40 }
  - { offsetInCU: 0x6F1A, offset: 0x6F1A, size: 0x8, addend: 0x0, symName: __ZNSt3__117__libcpp_allocateB7v160006Emm, symObjAddr: 0x2488, symBinAddr: 0x100002D88, symSize: 0x28 }
  - { offsetInCU: 0x6F57, offset: 0x6F57, size: 0x8, addend: 0x0, symName: __ZNSt3__121__libcpp_operator_newB7v160006IJmEEEPvDpT_, symObjAddr: 0x24B0, symBinAddr: 0x100002DB0, symSize: 0x24 }
  - { offsetInCU: 0x6F90, offset: 0x6F90, size: 0x8, addend: 0x0, symName: __ZNSt3__142__uninitialized_allocator_move_if_noexceptB7v160006INS_9allocatorIiEENS_16reverse_iteratorIPiEES5_ivEET1_RT_T0_S9_S6_, symObjAddr: 0x2538, symBinAddr: 0x100002E38, symSize: 0xE8 }
  - { offsetInCU: 0x700D, offset: 0x700D, size: 0x8, addend: 0x0, symName: __ZNSt3__14swapB7v160006IPiEEvRT_S3_, symObjAddr: 0x266C, symBinAddr: 0x100002F6C, symSize: 0x3C }
  - { offsetInCU: 0x705E, offset: 0x705E, size: 0x8, addend: 0x0, symName: __ZNSt3__125__debug_db_invalidate_allB7v160006INS_6vectorIiNS_9allocatorIiEEEEEEvPT_, symObjAddr: 0x2754, symBinAddr: 0x100003054, symSize: 0x10 }
  - { offsetInCU: 0x708F, offset: 0x708F, size: 0x8, addend: 0x0, symName: __ZNSt3__1neB7v160006IPiS1_EEbRKNS_16reverse_iteratorIT_EERKNS2_IT0_EE, symObjAddr: 0x2764, symBinAddr: 0x100003064, symSize: 0x48 }
  - { offsetInCU: 0x7100, offset: 0x7100, size: 0x8, addend: 0x0, symName: __ZNSt3__114__construct_atB7v160006IiJiEPiEEPT_S3_DpOT0_, symObjAddr: 0x27AC, symBinAddr: 0x1000030AC, symSize: 0x2C }
  - { offsetInCU: 0x7170, offset: 0x7170, size: 0x8, addend: 0x0, symName: __ZNSt3__112__to_addressB7v160006INS_16reverse_iteratorIPiEEvEENS_5decayIDTclsr19__to_address_helperIT_EE6__callclsr3stdE7declvalIRKS5_EEEEE4typeES7_, symObjAddr: 0x27D8, symBinAddr: 0x1000030D8, symSize: 0x24 }
  - { offsetInCU: 0x71A6, offset: 0x71A6, size: 0x8, addend: 0x0, symName: __ZNSt3__14moveB7v160006INS_16reverse_iteratorIPiEES3_EET0_T_S5_S4_, symObjAddr: 0x2844, symBinAddr: 0x100003144, symSize: 0x78 }
  - { offsetInCU: 0x7229, offset: 0x7229, size: 0x8, addend: 0x0, symName: __ZNSt3__16__moveB7v160006INS_17_ClassicAlgPolicyENS_16reverse_iteratorIPiEES4_S4_EENS_4pairIT0_T2_EES6_T1_S7_, symObjAddr: 0x292C, symBinAddr: 0x10000322C, symSize: 0x64 }
  - { offsetInCU: 0x7295, offset: 0x7295, size: 0x8, addend: 0x0, symName: __ZNSt3__123__dispatch_copy_or_moveB7v160006INS_17_ClassicAlgPolicyENS_11__move_loopIS1_EENS_14__move_trivialENS_16reverse_iteratorIPiEES7_S7_EENS_4pairIT2_T4_EES9_T3_SA_, symObjAddr: 0x2990, symBinAddr: 0x100003290, symSize: 0x7C }
  - { offsetInCU: 0x7313, offset: 0x7313, size: 0x8, addend: 0x0, symName: __ZNSt3__121__unwrap_and_dispatchB7v160006INS_10__overloadINS_11__move_loopINS_17_ClassicAlgPolicyEEENS_14__move_trivialEEENS_16reverse_iteratorIPiEES9_S9_Li0EEENS_4pairIT0_T2_EESB_T1_SC_, symObjAddr: 0x2A0C, symBinAddr: 0x10000330C, symSize: 0x12C }
  - { offsetInCU: 0x73A3, offset: 0x73A3, size: 0x8, addend: 0x0, symName: __ZNSt3__114__unwrap_rangeB7v160006INS_16reverse_iteratorIPiEES3_EENS_4pairIT0_S5_EET_S7_, symObjAddr: 0x2B38, symBinAddr: 0x100003438, symSize: 0x84 }
  - { offsetInCU: 0x74F7, offset: 0x74F7, size: 0x8, addend: 0x0, symName: __ZNSt3__113__unwrap_iterB7v160006INS_16reverse_iteratorIPiEENS_18__unwrap_iter_implIS3_Lb0EEELi0EEEDTclsrT0_8__unwrapclsr3stdE7declvalIT_EEEES7_, symObjAddr: 0x2C5C, symBinAddr: 0x10000355C, symSize: 0x44 }
  - { offsetInCU: 0x753B, offset: 0x753B, size: 0x8, addend: 0x0, symName: __ZNSt3__19make_pairB7v160006INS_16reverse_iteratorIPiEES3_EENS_4pairINS_18__unwrap_ref_decayIT_E4typeENS5_IT0_E4typeEEEOS6_OS9_, symObjAddr: 0x2CA0, symBinAddr: 0x1000035A0, symSize: 0x38 }
  - { offsetInCU: 0x758A, offset: 0x758A, size: 0x8, addend: 0x0, symName: __ZNSt3__114__rewrap_rangeB7v160006INS_16reverse_iteratorIPiEES3_EET_S4_T0_, symObjAddr: 0x2CD8, symBinAddr: 0x1000035D8, symSize: 0x5C }
  - { offsetInCU: 0x75D6, offset: 0x75D6, size: 0x8, addend: 0x0, symName: __ZNSt3__113__rewrap_iterB7v160006INS_16reverse_iteratorIPiEES3_NS_18__unwrap_iter_implIS3_Lb0EEEEET_S6_T0_, symObjAddr: 0x2D34, symBinAddr: 0x100003634, symSize: 0x88 }
  - { offsetInCU: 0x78BB, offset: 0x78BB, size: 0x8, addend: 0x0, symName: __ZSt28__throw_bad_array_new_lengthB7v160006v, symObjAddr: 0x2454, symBinAddr: 0x100002D54, symSize: 0x34 }
  - { offsetInCU: 0x7E3A, offset: 0x7E3A, size: 0x8, addend: 0x0, symName: __ZNSt3__16vectorIiNS_9allocatorIiEEE26__swap_out_circular_bufferERNS_14__split_bufferIiRS2_EE, symObjAddr: 0x1D28, symBinAddr: 0x100002628, symSize: 0x118 }
  - { offsetInCU: 0xA065, offset: 0xA065, size: 0x8, addend: 0x0, symName: _main, symObjAddr: 0x0, symBinAddr: 0x100000900, symSize: 0x3BC }
  - { offsetInCU: 0xA135, offset: 0xA135, size: 0x8, addend: 0x0, symName: __ZNSt3__113basic_ostreamIcNS_11char_traitsIcEEElsB7v160006EPFRS3_S4_E, symObjAddr: 0x45C, symBinAddr: 0x100000D5C, symSize: 0x2C }
  - { offsetInCU: 0xA168, offset: 0xA168, size: 0x8, addend: 0x0, symName: __ZNSt3__16vectorIiNS_9allocatorIiEEEC1B7v160006Ev, symObjAddr: 0x4E0, symBinAddr: 0x100000DE0, symSize: 0x2C }
  - { offsetInCU: 0xA190, offset: 0xA190, size: 0x8, addend: 0x0, symName: __ZNSt3__16vectorIiNS_9allocatorIiEEE9push_backB7v160006ERKi, symObjAddr: 0x50C, symBinAddr: 0x100000E0C, symSize: 0x6C }
  - { offsetInCU: 0xA1C6, offset: 0xA1C6, size: 0x8, addend: 0x0, symName: __ZNKSt3__16vectorIiNS_9allocatorIiEEE4sizeB7v160006Ev, symObjAddr: 0x578, symBinAddr: 0x100000E78, symSize: 0x28 }
  - { offsetInCU: 0xA1EB, offset: 0xA1EB, size: 0x8, addend: 0x0, symName: __ZNSt3__16vectorIiNS_9allocatorIiEEEixB7v160006Em, symObjAddr: 0x5A0, symBinAddr: 0x100000EA0, symSize: 0x24 }
  - { offsetInCU: 0xA221, offset: 0xA221, size: 0x8, addend: 0x0, symName: __ZNSt3__16vectorIiNS_9allocatorIiEEED1B7v160006Ev, symObjAddr: 0x5C4, symBinAddr: 0x100000EC4, symSize: 0x2C }
  - { offsetInCU: 0xA254, offset: 0xA254, size: 0x8, addend: 0x0, symName: __ZNKSt3__16__lessIiiEclB7v160006ERKiS3_, symObjAddr: 0x650, symBinAddr: 0x100000F50, symSize: 0x34 }
  - { offsetInCU: 0xA295, offset: 0xA295, size: 0x8, addend: 0x0, symName: __ZNSt3__111char_traitsIcE6lengthEPKc, symObjAddr: 0x8CC, symBinAddr: 0x1000011CC, symSize: 0x48 }
  - { offsetInCU: 0xA2D6, offset: 0xA2D6, size: 0x8, addend: 0x0, symName: __ZNKSt3__113basic_ostreamIcNS_11char_traitsIcEEE6sentrycvbB7v160006Ev, symObjAddr: 0x914, symBinAddr: 0x100001214, symSize: 0x1C }
  - { offsetInCU: 0xA2FB, offset: 0xA2FB, size: 0x8, addend: 0x0, symName: __ZNSt3__119ostreambuf_iteratorIcNS_11char_traitsIcEEEC1B7v160006ERNS_13basic_ostreamIcS2_EE, symObjAddr: 0xB78, symBinAddr: 0x100001478, symSize: 0x34 }
  - { offsetInCU: 0xA332, offset: 0xA332, size: 0x8, addend: 0x0, symName: __ZNKSt3__18ios_base5flagsB7v160006Ev, symObjAddr: 0xBAC, symBinAddr: 0x1000014AC, symSize: 0x18 }
  - { offsetInCU: 0xA358, offset: 0xA358, size: 0x8, addend: 0x0, symName: __ZNKSt3__19basic_iosIcNS_11char_traitsIcEEE4fillB7v160006Ev, symObjAddr: 0xBC4, symBinAddr: 0x1000014C4, symSize: 0x64 }
  - { offsetInCU: 0xA37F, offset: 0xA37F, size: 0x8, addend: 0x0, symName: __ZNKSt3__119ostreambuf_iteratorIcNS_11char_traitsIcEEE6failedB7v160006Ev, symObjAddr: 0xC28, symBinAddr: 0x100001528, symSize: 0x24 }
  - { offsetInCU: 0xA3A4, offset: 0xA3A4, size: 0x8, addend: 0x0, symName: __ZNSt3__19basic_iosIcNS_11char_traitsIcEEE8setstateB7v160006Ej, symObjAddr: 0xC4C, symBinAddr: 0x10000154C, symSize: 0x2C }
  - { offsetInCU: 0xA3D8, offset: 0xA3D8, size: 0x8, addend: 0x0, symName: __ZNKSt3__18ios_base5widthB7v160006Ev, symObjAddr: 0xC78, symBinAddr: 0x100001578, symSize: 0x18 }
  - { offsetInCU: 0xA3FF, offset: 0xA3FF, size: 0x8, addend: 0x0, symName: __ZNSt3__115basic_streambufIcNS_11char_traitsIcEEE5sputnB7v160006EPKcl, symObjAddr: 0xC90, symBinAddr: 0x100001590, symSize: 0x3C }
  - { offsetInCU: 0xA440, offset: 0xA440, size: 0x8, addend: 0x0, symName: __ZNSt3__112basic_stringIcNS_11char_traitsIcEENS_9allocatorIcEEEC1B7v160006Emc, symObjAddr: 0xCCC, symBinAddr: 0x1000015CC, symSize: 0x3C }
  - { offsetInCU: 0xA487, offset: 0xA487, size: 0x8, addend: 0x0, symName: __ZNKSt3__112basic_stringIcNS_11char_traitsIcEENS_9allocatorIcEEE4dataB7v160006Ev, symObjAddr: 0xD08, symBinAddr: 0x100001608, symSize: 0x28 }
  - { offsetInCU: 0xA4AC, offset: 0xA4AC, size: 0x8, addend: 0x0, symName: __ZNSt3__18ios_base5widthB7v160006El, symObjAddr: 0xD30, symBinAddr: 0x100001630, symSize: 0x2C }
  - { offsetInCU: 0xA4F1, offset: 0xA4F1, size: 0x8, addend: 0x0, symName: __ZNSt3__112basic_stringIcNS_11char_traitsIcEENS_9allocatorIcEEEC2B7v160006Emc, symObjAddr: 0xD5C, symBinAddr: 0x10000165C, symSize: 0x54 }
  - { offsetInCU: 0xA53D, offset: 0xA53D, size: 0x8, addend: 0x0, symName: __ZNSt3__117__compressed_pairINS_12basic_stringIcNS_11char_traitsIcEENS_9allocatorIcEEE5__repES5_EC1B7v160006INS_18__default_init_tagESA_EEOT_OT0_, symObjAddr: 0xDB0, symBinAddr: 0x1000016B0, symSize: 0x3C }
  - { offsetInCU: 0xA594, offset: 0xA594, size: 0x8, addend: 0x0, symName: __ZNSt3__117__compressed_pairINS_12basic_stringIcNS_11char_traitsIcEENS_9allocatorIcEEE5__repES5_EC2B7v160006INS_18__default_init_tagESA_EEOT_OT0_, symObjAddr: 0xDFC, symBinAddr: 0x1000016FC, symSize: 0x3C }
  - { offsetInCU: 0xA5EB, offset: 0xA5EB, size: 0x8, addend: 0x0, symName: __ZNSt3__122__compressed_pair_elemINS_12basic_stringIcNS_11char_traitsIcEENS_9allocatorIcEEE5__repELi0ELb0EEC2B7v160006ENS_18__default_init_tagE, symObjAddr: 0xE38, symBinAddr: 0x100001738, symSize: 0x14 }
  - { offsetInCU: 0xA61F, offset: 0xA61F, size: 0x8, addend: 0x0, symName: __ZNSt3__122__compressed_pair_elemINS_9allocatorIcEELi1ELb1EEC2B7v160006ENS_18__default_init_tagE, symObjAddr: 0xE4C, symBinAddr: 0x10000174C, symSize: 0x2C }
  - { offsetInCU: 0xA653, offset: 0xA653, size: 0x8, addend: 0x0, symName: __ZNSt3__19allocatorIcEC2B7v160006Ev, symObjAddr: 0xE78, symBinAddr: 0x100001778, symSize: 0x2C }
  - { offsetInCU: 0xA67C, offset: 0xA67C, size: 0x8, addend: 0x0, symName: __ZNSt3__116__non_trivial_ifILb1ENS_9allocatorIcEEEC2B7v160006Ev, symObjAddr: 0xEA4, symBinAddr: 0x1000017A4, symSize: 0x14 }
  - { offsetInCU: 0xA6A5, offset: 0xA6A5, size: 0x8, addend: 0x0, symName: __ZNKSt3__112basic_stringIcNS_11char_traitsIcEENS_9allocatorIcEEE13__get_pointerB7v160006Ev, symObjAddr: 0xECC, symBinAddr: 0x1000017CC, symSize: 0x54 }
  - { offsetInCU: 0xA6CA, offset: 0xA6CA, size: 0x8, addend: 0x0, symName: __ZNKSt3__112basic_stringIcNS_11char_traitsIcEENS_9allocatorIcEEE9__is_longB7v160006Ev, symObjAddr: 0xF20, symBinAddr: 0x100001820, symSize: 0x74 }
  - { offsetInCU: 0xA6EF, offset: 0xA6EF, size: 0x8, addend: 0x0, symName: __ZNKSt3__112basic_stringIcNS_11char_traitsIcEENS_9allocatorIcEEE18__get_long_pointerB7v160006Ev, symObjAddr: 0xF94, symBinAddr: 0x100001894, symSize: 0x28 }
  - { offsetInCU: 0xA714, offset: 0xA714, size: 0x8, addend: 0x0, symName: __ZNKSt3__112basic_stringIcNS_11char_traitsIcEENS_9allocatorIcEEE19__get_short_pointerB7v160006Ev, symObjAddr: 0xFBC, symBinAddr: 0x1000018BC, symSize: 0x28 }
  - { offsetInCU: 0xA739, offset: 0xA739, size: 0x8, addend: 0x0, symName: __ZNKSt3__117__compressed_pairINS_12basic_stringIcNS_11char_traitsIcEENS_9allocatorIcEEE5__repES5_E5firstB7v160006Ev, symObjAddr: 0xFF0, symBinAddr: 0x1000018F0, symSize: 0x24 }
  - { offsetInCU: 0xA75E, offset: 0xA75E, size: 0x8, addend: 0x0, symName: __ZNKSt3__122__compressed_pair_elemINS_12basic_stringIcNS_11char_traitsIcEENS_9allocatorIcEEE5__repELi0ELb0EE5__getB7v160006Ev, symObjAddr: 0x1014, symBinAddr: 0x100001914, symSize: 0x14 }
  - { offsetInCU: 0xA783, offset: 0xA783, size: 0x8, addend: 0x0, symName: __ZNSt3__114pointer_traitsIPKcE10pointer_toB7v160006ERS1_, symObjAddr: 0x1028, symBinAddr: 0x100001928, symSize: 0x14 }
  - { offsetInCU: 0xA7A6, offset: 0xA7A6, size: 0x8, addend: 0x0, symName: __ZNSt3__119ostreambuf_iteratorIcNS_11char_traitsIcEEEC2B7v160006ERNS_13basic_ostreamIcS2_EE, symObjAddr: 0x103C, symBinAddr: 0x10000193C, symSize: 0x68 }
  - { offsetInCU: 0xA7DC, offset: 0xA7DC, size: 0x8, addend: 0x0, symName: __ZNKSt3__19basic_iosIcNS_11char_traitsIcEEE5rdbufB7v160006Ev, symObjAddr: 0x10A4, symBinAddr: 0x1000019A4, symSize: 0x24 }
  - { offsetInCU: 0xA803, offset: 0xA803, size: 0x8, addend: 0x0, symName: __ZNKSt3__18ios_base5rdbufB7v160006Ev, symObjAddr: 0x10C8, symBinAddr: 0x1000019C8, symSize: 0x18 }
  - { offsetInCU: 0xA828, offset: 0xA828, size: 0x8, addend: 0x0, symName: __ZNSt3__111char_traitsIcE11eq_int_typeEii, symObjAddr: 0x10E0, symBinAddr: 0x1000019E0, symSize: 0x28 }
  - { offsetInCU: 0xA859, offset: 0xA859, size: 0x8, addend: 0x0, symName: __ZNSt3__111char_traitsIcE3eofEv, symObjAddr: 0x1108, symBinAddr: 0x100001A08, symSize: 0x8 }
  - { offsetInCU: 0xA86C, offset: 0xA86C, size: 0x8, addend: 0x0, symName: __ZNKSt3__19basic_iosIcNS_11char_traitsIcEEE5widenB7v160006Ec, symObjAddr: 0x1110, symBinAddr: 0x100001A10, symSize: 0x8C }
  - { offsetInCU: 0xA8D9, offset: 0xA8D9, size: 0x8, addend: 0x0, symName: __ZNKSt3__15ctypeIcE5widenB7v160006Ec, symObjAddr: 0x11C8, symBinAddr: 0x100001AC8, symSize: 0x38 }
  - { offsetInCU: 0xA90C, offset: 0xA90C, size: 0x8, addend: 0x0, symName: __ZNSt3__18ios_base8setstateB7v160006Ej, symObjAddr: 0x1200, symBinAddr: 0x100001B00, symSize: 0x34 }
  - { offsetInCU: 0xA942, offset: 0xA942, size: 0x8, addend: 0x0, symName: __ZNSt3__16vectorIiNS_9allocatorIiEEEC2B7v160006Ev, symObjAddr: 0x1258, symBinAddr: 0x100001B58, symSize: 0x4C }
  - { offsetInCU: 0xA970, offset: 0xA970, size: 0x8, addend: 0x0, symName: __ZNSt3__117__compressed_pairIPiNS_9allocatorIiEEEC1B7v160006IDnNS_18__default_init_tagEEEOT_OT0_, symObjAddr: 0x12A4, symBinAddr: 0x100001BA4, symSize: 0x3C }
  - { offsetInCU: 0xA9C7, offset: 0xA9C7, size: 0x8, addend: 0x0, symName: __ZNSt3__117__compressed_pairIPiNS_9allocatorIiEEEC2B7v160006IDnNS_18__default_init_tagEEEOT_OT0_, symObjAddr: 0x12F0, symBinAddr: 0x100001BF0, symSize: 0x40 }
  - { offsetInCU: 0xAA1E, offset: 0xAA1E, size: 0x8, addend: 0x0, symName: __ZNSt3__122__compressed_pair_elemIPiLi0ELb0EEC2B7v160006IDnvEEOT_, symObjAddr: 0x1330, symBinAddr: 0x100001C30, symSize: 0x1C }
  - { offsetInCU: 0xAA5F, offset: 0xAA5F, size: 0x8, addend: 0x0, symName: __ZNSt3__122__compressed_pair_elemINS_9allocatorIiEELi1ELb1EEC2B7v160006ENS_18__default_init_tagE, symObjAddr: 0x134C, symBinAddr: 0x100001C4C, symSize: 0x2C }
  - { offsetInCU: 0xAA93, offset: 0xAA93, size: 0x8, addend: 0x0, symName: __ZNSt3__19allocatorIiEC2B7v160006Ev, symObjAddr: 0x1378, symBinAddr: 0x100001C78, symSize: 0x2C }
  - { offsetInCU: 0xAABC, offset: 0xAABC, size: 0x8, addend: 0x0, symName: __ZNSt3__116__non_trivial_ifILb1ENS_9allocatorIiEEEC2B7v160006Ev, symObjAddr: 0x13A4, symBinAddr: 0x100001CA4, symSize: 0x14 }
  - { offsetInCU: 0xAAE5, offset: 0xAAE5, size: 0x8, addend: 0x0, symName: __ZNSt3__16vectorIiNS_9allocatorIiEEED2B7v160006Ev, symObjAddr: 0x13B8, symBinAddr: 0x100001CB8, symSize: 0x3C }
  - { offsetInCU: 0xAB0E, offset: 0xAB0E, size: 0x8, addend: 0x0, symName: __ZNSt3__16vectorIiNS_9allocatorIiEEE16__destroy_vectorC1ERS3_, symObjAddr: 0x13F4, symBinAddr: 0x100001CF4, symSize: 0x34 }
  - { offsetInCU: 0xAB46, offset: 0xAB46, size: 0x8, addend: 0x0, symName: __ZNSt3__16vectorIiNS_9allocatorIiEEE16__destroy_vectorclB7v160006Ev, symObjAddr: 0x1428, symBinAddr: 0x100001D28, symSize: 0x9C }
  - { offsetInCU: 0xAB6B, offset: 0xAB6B, size: 0x8, addend: 0x0, symName: __ZNSt3__16vectorIiNS_9allocatorIiEEE16__destroy_vectorC2ERS3_, symObjAddr: 0x14C4, symBinAddr: 0x100001DC4, symSize: 0x20 }
  - { offsetInCU: 0xABA3, offset: 0xABA3, size: 0x8, addend: 0x0, symName: __ZNKSt3__16vectorIiNS_9allocatorIiEEE17__annotate_deleteB7v160006Ev, symObjAddr: 0x14E4, symBinAddr: 0x100001DE4, symSize: 0xB8 }
  - { offsetInCU: 0xABC8, offset: 0xABC8, size: 0x8, addend: 0x0, symName: __ZNSt3__16vectorIiNS_9allocatorIiEEE7__clearB7v160006Ev, symObjAddr: 0x15AC, symBinAddr: 0x100001EAC, symSize: 0x28 }
  - { offsetInCU: 0xABED, offset: 0xABED, size: 0x8, addend: 0x0, symName: __ZNSt3__116allocator_traitsINS_9allocatorIiEEE10deallocateB7v160006ERS2_Pim, symObjAddr: 0x15D4, symBinAddr: 0x100001ED4, symSize: 0x34 }
  - { offsetInCU: 0xAC2F, offset: 0xAC2F, size: 0x8, addend: 0x0, symName: __ZNSt3__16vectorIiNS_9allocatorIiEEE7__allocB7v160006Ev, symObjAddr: 0x1608, symBinAddr: 0x100001F08, symSize: 0x28 }
  - { offsetInCU: 0xAC54, offset: 0xAC54, size: 0x8, addend: 0x0, symName: __ZNKSt3__16vectorIiNS_9allocatorIiEEE8capacityB7v160006Ev, symObjAddr: 0x1630, symBinAddr: 0x100001F30, symSize: 0x40 }
  - { offsetInCU: 0xAC79, offset: 0xAC79, size: 0x8, addend: 0x0, symName: __ZNKSt3__16vectorIiNS_9allocatorIiEEE31__annotate_contiguous_containerB7v160006EPKvS5_S5_S5_, symObjAddr: 0x1670, symBinAddr: 0x100001F70, symSize: 0x20 }
  - { offsetInCU: 0xACCA, offset: 0xACCA, size: 0x8, addend: 0x0, symName: __ZNKSt3__16vectorIiNS_9allocatorIiEEE4dataB7v160006Ev, symObjAddr: 0x1690, symBinAddr: 0x100001F90, symSize: 0x28 }
  - { offsetInCU: 0xACEF, offset: 0xACEF, size: 0x8, addend: 0x0, symName: __ZNSt3__16vectorIiNS_9allocatorIiEEE22__base_destruct_at_endB7v160006EPi, symObjAddr: 0x16CC, symBinAddr: 0x100001FCC, symSize: 0xA0 }
  - { offsetInCU: 0xAD32, offset: 0xAD32, size: 0x8, addend: 0x0, symName: __ZNSt3__116allocator_traitsINS_9allocatorIiEEE7destroyB7v160006IivEEvRS2_PT_, symObjAddr: 0x176C, symBinAddr: 0x10000206C, symSize: 0x2C }
  - { offsetInCU: 0xAD6F, offset: 0xAD6F, size: 0x8, addend: 0x0, symName: __ZNSt3__19allocatorIiE7destroyB7v160006EPi, symObjAddr: 0x1798, symBinAddr: 0x100002098, symSize: 0x14 }
  - { offsetInCU: 0xADA2, offset: 0xADA2, size: 0x8, addend: 0x0, symName: __ZNSt3__19allocatorIiE10deallocateB7v160006EPim, symObjAddr: 0x17AC, symBinAddr: 0x1000020AC, symSize: 0x70 }
  - { offsetInCU: 0xADE3, offset: 0xADE3, size: 0x8, addend: 0x0, symName: __ZNSt3__117__compressed_pairIPiNS_9allocatorIiEEE6secondB7v160006Ev, symObjAddr: 0x1898, symBinAddr: 0x100002198, symSize: 0x24 }
  - { offsetInCU: 0xAE08, offset: 0xAE08, size: 0x8, addend: 0x0, symName: __ZNSt3__122__compressed_pair_elemINS_9allocatorIiEELi1ELb1EE5__getB7v160006Ev, symObjAddr: 0x18BC, symBinAddr: 0x1000021BC, symSize: 0x14 }
  - { offsetInCU: 0xAE2D, offset: 0xAE2D, size: 0x8, addend: 0x0, symName: __ZNKSt3__16vectorIiNS_9allocatorIiEEE9__end_capB7v160006Ev, symObjAddr: 0x18D0, symBinAddr: 0x1000021D0, symSize: 0x28 }
  - { offsetInCU: 0xAE52, offset: 0xAE52, size: 0x8, addend: 0x0, symName: __ZNKSt3__117__compressed_pairIPiNS_9allocatorIiEEE5firstB7v160006Ev, symObjAddr: 0x18F8, symBinAddr: 0x1000021F8, symSize: 0x24 }
  - { offsetInCU: 0xAE77, offset: 0xAE77, size: 0x8, addend: 0x0, symName: __ZNKSt3__122__compressed_pair_elemIPiLi0ELb0EE5__getB7v160006Ev, symObjAddr: 0x191C, symBinAddr: 0x10000221C, symSize: 0x14 }
  - { offsetInCU: 0xAE9C, offset: 0xAE9C, size: 0x8, addend: 0x0, symName: __ZNSt3__16vectorIiNS_9allocatorIiEEE9__end_capB7v160006Ev, symObjAddr: 0x1930, symBinAddr: 0x100002230, symSize: 0x28 }
  - { offsetInCU: 0xAEC1, offset: 0xAEC1, size: 0x8, addend: 0x0, symName: __ZNSt3__16vectorIiNS_9allocatorIiEEE22__construct_one_at_endB7v160006IJRKiEEEvDpOT_, symObjAddr: 0x1958, symBinAddr: 0x100002258, symSize: 0x98 }
  - { offsetInCU: 0xAF0E, offset: 0xAF0E, size: 0x8, addend: 0x0, symName: __ZNSt3__16vectorIiNS_9allocatorIiEEE21__push_back_slow_pathIRKiEEvOT_, symObjAddr: 0x19F0, symBinAddr: 0x1000022F0, symSize: 0xE0 }
  - { offsetInCU: 0xAF6B, offset: 0xAF6B, size: 0x8, addend: 0x0, symName: __ZNSt3__117__compressed_pairIPiNS_9allocatorIiEEE5firstB7v160006Ev, symObjAddr: 0x1AD0, symBinAddr: 0x1000023D0, symSize: 0x24 }
  - { offsetInCU: 0xAF90, offset: 0xAF90, size: 0x8, addend: 0x0, symName: __ZNSt3__122__compressed_pair_elemIPiLi0ELb0EE5__getB7v160006Ev, symObjAddr: 0x1AF4, symBinAddr: 0x1000023F4, symSize: 0x14 }
  - { offsetInCU: 0xAFCE, offset: 0xAFCE, size: 0x8, addend: 0x0, symName: __ZNSt3__16vectorIiNS_9allocatorIiEEE21_ConstructTransactionC1B7v160006ERS3_m, symObjAddr: 0x1B08, symBinAddr: 0x100002408, symSize: 0x3C }
  - { offsetInCU: 0xB015, offset: 0xB015, size: 0x8, addend: 0x0, symName: __ZNSt3__116allocator_traitsINS_9allocatorIiEEE9constructB7v160006IiJRKiEvEEvRS2_PT_DpOT0_, symObjAddr: 0x1B44, symBinAddr: 0x100002444, symSize: 0x34 }
  - { offsetInCU: 0xB06C, offset: 0xB06C, size: 0x8, addend: 0x0, symName: __ZNSt3__16vectorIiNS_9allocatorIiEEE21_ConstructTransactionD1B7v160006Ev, symObjAddr: 0x1B78, symBinAddr: 0x100002478, symSize: 0x2C }
  - { offsetInCU: 0xB095, offset: 0xB095, size: 0x8, addend: 0x0, symName: __ZNSt3__16vectorIiNS_9allocatorIiEEE21_ConstructTransactionC2B7v160006ERS3_m, symObjAddr: 0x1BA4, symBinAddr: 0x1000024A4, symSize: 0x44 }
  - { offsetInCU: 0xB0DC, offset: 0xB0DC, size: 0x8, addend: 0x0, symName: __ZNSt3__19allocatorIiE9constructB7v160006IiJRKiEEEvPT_DpOT0_, symObjAddr: 0x1BE8, symBinAddr: 0x1000024E8, symSize: 0x28 }
  - { offsetInCU: 0xB131, offset: 0xB131, size: 0x8, addend: 0x0, symName: __ZNSt3__16vectorIiNS_9allocatorIiEEE21_ConstructTransactionD2B7v160006Ev, symObjAddr: 0x1C10, symBinAddr: 0x100002510, symSize: 0x20 }
  - { offsetInCU: 0xB159, offset: 0xB159, size: 0x8, addend: 0x0, symName: __ZNKSt3__16vectorIiNS_9allocatorIiEEE11__recommendB7v160006Em, symObjAddr: 0x1C30, symBinAddr: 0x100002530, symSize: 0xB4 }
  - { offsetInCU: 0xB1AD, offset: 0xB1AD, size: 0x8, addend: 0x0, symName: __ZNSt3__114__split_bufferIiRNS_9allocatorIiEEEC1EmmS3_, symObjAddr: 0x1CE4, symBinAddr: 0x1000025E4, symSize: 0x44 }
  - { offsetInCU: 0xB202, offset: 0xB202, size: 0x8, addend: 0x0, symName: __ZNSt3__114__split_bufferIiRNS_9allocatorIiEEED1Ev, symObjAddr: 0x1E40, symBinAddr: 0x100002740, symSize: 0x2C }
  - { offsetInCU: 0xB22C, offset: 0xB22C, size: 0x8, addend: 0x0, symName: __ZNKSt3__16vectorIiNS_9allocatorIiEEE8max_sizeEv, symObjAddr: 0x1E6C, symBinAddr: 0x10000276C, symSize: 0x74 }
  - { offsetInCU: 0xB253, offset: 0xB253, size: 0x8, addend: 0x0, symName: __ZNKSt3__16vectorIiNS_9allocatorIiEEE20__throw_length_errorB7v160006Ev, symObjAddr: 0x1EE0, symBinAddr: 0x1000027E0, symSize: 0x1C }
  - { offsetInCU: 0xB282, offset: 0xB282, size: 0x8, addend: 0x0, symName: __ZNSt3__116allocator_traitsINS_9allocatorIiEEE8max_sizeB7v160006IS2_vEEmRKS2_, symObjAddr: 0x1F54, symBinAddr: 0x100002854, symSize: 0x24 }
  - { offsetInCU: 0xB2B0, offset: 0xB2B0, size: 0x8, addend: 0x0, symName: __ZNKSt3__16vectorIiNS_9allocatorIiEEE7__allocB7v160006Ev, symObjAddr: 0x1F78, symBinAddr: 0x100002878, symSize: 0x28 }
  - { offsetInCU: 0xB2D5, offset: 0xB2D5, size: 0x8, addend: 0x0, symName: __ZNSt3__114numeric_limitsIlE3maxB7v160006Ev, symObjAddr: 0x1FA0, symBinAddr: 0x1000028A0, symSize: 0x14 }
  - { offsetInCU: 0xB2FD, offset: 0xB2FD, size: 0x8, addend: 0x0, symName: __ZNKSt3__16__lessImmEclB7v160006ERKmS3_, symObjAddr: 0x2008, symBinAddr: 0x100002908, symSize: 0x34 }
  - { offsetInCU: 0xB33E, offset: 0xB33E, size: 0x8, addend: 0x0, symName: __ZNKSt3__19allocatorIiE8max_sizeB7v160006Ev, symObjAddr: 0x203C, symBinAddr: 0x10000293C, symSize: 0x14 }
  - { offsetInCU: 0xB363, offset: 0xB363, size: 0x8, addend: 0x0, symName: __ZNKSt3__117__compressed_pairIPiNS_9allocatorIiEEE6secondB7v160006Ev, symObjAddr: 0x2050, symBinAddr: 0x100002950, symSize: 0x24 }
  - { offsetInCU: 0xB388, offset: 0xB388, size: 0x8, addend: 0x0, symName: __ZNKSt3__122__compressed_pair_elemINS_9allocatorIiEELi1ELb1EE5__getB7v160006Ev, symObjAddr: 0x2074, symBinAddr: 0x100002974, symSize: 0x14 }
  - { offsetInCU: 0xB3AD, offset: 0xB3AD, size: 0x8, addend: 0x0, symName: __ZNSt3__123__libcpp_numeric_limitsIlLb1EE3maxB7v160006Ev, symObjAddr: 0x2088, symBinAddr: 0x100002988, symSize: 0x8 }
  - { offsetInCU: 0xB3C1, offset: 0xB3C1, size: 0x8, addend: 0x0, symName: __ZNSt12length_errorC1B7v160006EPKc, symObjAddr: 0x20F4, symBinAddr: 0x1000029F4, symSize: 0x34 }
  - { offsetInCU: 0xB3F8, offset: 0xB3F8, size: 0x8, addend: 0x0, symName: __ZNSt12length_errorC2B7v160006EPKc, symObjAddr: 0x2128, symBinAddr: 0x100002A28, symSize: 0x4C }
  - { offsetInCU: 0xB42F, offset: 0xB42F, size: 0x8, addend: 0x0, symName: __ZNSt3__114__split_bufferIiRNS_9allocatorIiEEEC2EmmS3_, symObjAddr: 0x21C8, symBinAddr: 0x100002AC8, symSize: 0xD4 }
  - { offsetInCU: 0xB4A2, offset: 0xB4A2, size: 0x8, addend: 0x0, symName: __ZNSt3__117__compressed_pairIPiRNS_9allocatorIiEEEC1B7v160006IDnS4_EEOT_OT0_, symObjAddr: 0x229C, symBinAddr: 0x100002B9C, symSize: 0x3C }
  - { offsetInCU: 0xB4F9, offset: 0xB4F9, size: 0x8, addend: 0x0, symName: __ZNSt3__114__split_bufferIiRNS_9allocatorIiEEE7__allocB7v160006Ev, symObjAddr: 0x2318, symBinAddr: 0x100002C18, symSize: 0x28 }
  - { offsetInCU: 0xB51E, offset: 0xB51E, size: 0x8, addend: 0x0, symName: __ZNSt3__114__split_bufferIiRNS_9allocatorIiEEE9__end_capB7v160006Ev, symObjAddr: 0x2340, symBinAddr: 0x100002C40, symSize: 0x28 }
  - { offsetInCU: 0xB543, offset: 0xB543, size: 0x8, addend: 0x0, symName: __ZNSt3__117__compressed_pairIPiRNS_9allocatorIiEEEC2B7v160006IDnS4_EEOT_OT0_, symObjAddr: 0x2368, symBinAddr: 0x100002C68, symSize: 0x48 }
  - { offsetInCU: 0xB59A, offset: 0xB59A, size: 0x8, addend: 0x0, symName: __ZNSt3__122__compressed_pair_elemIRNS_9allocatorIiEELi1ELb0EEC2B7v160006IS3_vEEOT_, symObjAddr: 0x23B0, symBinAddr: 0x100002CB0, symSize: 0x20 }
  - { offsetInCU: 0xB5DB, offset: 0xB5DB, size: 0x8, addend: 0x0, symName: __ZNSt3__19allocatorIiE8allocateB7v160006Em, symObjAddr: 0x23D0, symBinAddr: 0x100002CD0, symSize: 0x84 }
  - { offsetInCU: 0xB60E, offset: 0xB60E, size: 0x8, addend: 0x0, symName: __ZNSt3__117__compressed_pairIPiRNS_9allocatorIiEEE6secondB7v160006Ev, symObjAddr: 0x24D4, symBinAddr: 0x100002DD4, symSize: 0x28 }
  - { offsetInCU: 0xB633, offset: 0xB633, size: 0x8, addend: 0x0, symName: __ZNSt3__122__compressed_pair_elemIRNS_9allocatorIiEELi1ELb0EE5__getB7v160006Ev, symObjAddr: 0x24FC, symBinAddr: 0x100002DFC, symSize: 0x18 }
  - { offsetInCU: 0xB658, offset: 0xB658, size: 0x8, addend: 0x0, symName: __ZNSt3__117__compressed_pairIPiRNS_9allocatorIiEEE5firstB7v160006Ev, symObjAddr: 0x2514, symBinAddr: 0x100002E14, symSize: 0x24 }
  - { offsetInCU: 0xB67D, offset: 0xB67D, size: 0x8, addend: 0x0, symName: __ZNSt3__116reverse_iteratorIPiEC1B7v160006ES1_, symObjAddr: 0x2620, symBinAddr: 0x100002F20, symSize: 0x34 }
  - { offsetInCU: 0xB6B4, offset: 0xB6B4, size: 0x8, addend: 0x0, symName: __ZNKSt3__116reverse_iteratorIPiE4baseB7v160006Ev, symObjAddr: 0x2654, symBinAddr: 0x100002F54, symSize: 0x18 }
  - { offsetInCU: 0xB6D9, offset: 0xB6D9, size: 0x8, addend: 0x0, symName: __ZNKSt3__16vectorIiNS_9allocatorIiEEE14__annotate_newB7v160006Em, symObjAddr: 0x26A8, symBinAddr: 0x100002FA8, symSize: 0xAC }
  - { offsetInCU: 0xB70D, offset: 0xB70D, size: 0x8, addend: 0x0, symName: __ZNKSt3__116reverse_iteratorIPiEdeB7v160006Ev, symObjAddr: 0x27FC, symBinAddr: 0x1000030FC, symSize: 0x28 }
  - { offsetInCU: 0xB740, offset: 0xB740, size: 0x8, addend: 0x0, symName: __ZNSt3__116reverse_iteratorIPiEppB7v160006Ev, symObjAddr: 0x2824, symBinAddr: 0x100003124, symSize: 0x20 }
  - { offsetInCU: 0xB76A, offset: 0xB76A, size: 0x8, addend: 0x0, symName: __ZNSt3__119__to_address_helperINS_16reverse_iteratorIPiEEvE6__callB7v160006ERKS3_, symObjAddr: 0x28BC, symBinAddr: 0x1000031BC, symSize: 0x4C }
  - { offsetInCU: 0xB78D, offset: 0xB78D, size: 0x8, addend: 0x0, symName: __ZNKSt3__116reverse_iteratorIPiEptB7v160006Ev, symObjAddr: 0x2908, symBinAddr: 0x100003208, symSize: 0x24 }
  - { offsetInCU: 0xB7D5, offset: 0xB7D5, size: 0x8, addend: 0x0, symName: __ZNKSt3__111__move_loopINS_17_ClassicAlgPolicyEEclB7v160006INS_16reverse_iteratorIPiEES6_S6_EENS_4pairIT_T1_EES8_T0_S9_, symObjAddr: 0x2BBC, symBinAddr: 0x1000034BC, symSize: 0xA0 }
  - { offsetInCU: 0xB844, offset: 0xB844, size: 0x8, addend: 0x0, symName: __ZNSt3__18_IterOpsINS_17_ClassicAlgPolicyEE11__iter_moveB7v160006IRNS_16reverse_iteratorIPiEEEENS_9enable_ifIXsr12is_referenceIDTdeclsr3stdE7declvalIRT_EEEEE5valueEDTclsr3stdE4movedeclsr3stdE7declvalISA_EEEEE4typeEOS9_, symObjAddr: 0x2DBC, symBinAddr: 0x1000036BC, symSize: 0x28 }
  - { offsetInCU: 0xB870, offset: 0xB870, size: 0x8, addend: 0x0, symName: __ZNSt3__18_IterOpsINS_17_ClassicAlgPolicyEE25__validate_iter_referenceB7v160006IRNS_16reverse_iteratorIPiEEEEvv, symObjAddr: 0x2DE4, symBinAddr: 0x1000036E4, symSize: 0x4 }
  - { offsetInCU: 0xB88E, offset: 0xB88E, size: 0x8, addend: 0x0, symName: __ZNSt3__118__unwrap_iter_implINS_16reverse_iteratorIPiEELb0EE8__unwrapB7v160006ES3_, symObjAddr: 0x2DE8, symBinAddr: 0x1000036E8, symSize: 0x24 }
  - { offsetInCU: 0xB8B1, offset: 0xB8B1, size: 0x8, addend: 0x0, symName: __ZNSt3__14pairINS_16reverse_iteratorIPiEES3_EC1B7v160006ERKS3_S6_, symObjAddr: 0x2E0C, symBinAddr: 0x10000370C, symSize: 0x3C }
  - { offsetInCU: 0xB8F6, offset: 0xB8F6, size: 0x8, addend: 0x0, symName: __ZNSt3__14pairINS_16reverse_iteratorIPiEES3_EC2B7v160006ERKS3_S6_, symObjAddr: 0x2E48, symBinAddr: 0x100003748, symSize: 0x34 }
  - { offsetInCU: 0xB93B, offset: 0xB93B, size: 0x8, addend: 0x0, symName: __ZNSt3__118__unwrap_iter_implINS_16reverse_iteratorIPiEELb0EE8__rewrapB7v160006ES3_S3_, symObjAddr: 0x2E7C, symBinAddr: 0x10000377C, symSize: 0x2C }
  - { offsetInCU: 0xB969, offset: 0xB969, size: 0x8, addend: 0x0, symName: __ZNSt3__116reverse_iteratorIPiEC2B7v160006ES1_, symObjAddr: 0x2EA8, symBinAddr: 0x1000037A8, symSize: 0x28 }
  - { offsetInCU: 0xB9A0, offset: 0xB9A0, size: 0x8, addend: 0x0, symName: __ZNSt3__114__split_bufferIiRNS_9allocatorIiEEED2Ev, symObjAddr: 0x2ED0, symBinAddr: 0x1000037D0, symSize: 0x80 }
  - { offsetInCU: 0xB9CB, offset: 0xB9CB, size: 0x8, addend: 0x0, symName: __ZNSt3__114__split_bufferIiRNS_9allocatorIiEEE5clearB7v160006Ev, symObjAddr: 0x2F50, symBinAddr: 0x100003850, symSize: 0x28 }
  - { offsetInCU: 0xB9F0, offset: 0xB9F0, size: 0x8, addend: 0x0, symName: __ZNKSt3__114__split_bufferIiRNS_9allocatorIiEEE8capacityB7v160006Ev, symObjAddr: 0x2F78, symBinAddr: 0x100003878, symSize: 0x40 }
  - { offsetInCU: 0xBA15, offset: 0xBA15, size: 0x8, addend: 0x0, symName: __ZNSt3__114__split_bufferIiRNS_9allocatorIiEEE17__destruct_at_endB7v160006EPi, symObjAddr: 0x2FB8, symBinAddr: 0x1000038B8, symSize: 0x2C }
  - { offsetInCU: 0xBA47, offset: 0xBA47, size: 0x8, addend: 0x0, symName: __ZNSt3__114__split_bufferIiRNS_9allocatorIiEEE17__destruct_at_endB7v160006EPiNS_17integral_constantIbLb0EEE, symObjAddr: 0x2FE4, symBinAddr: 0x1000038E4, symSize: 0x94 }
  - { offsetInCU: 0xBA87, offset: 0xBA87, size: 0x8, addend: 0x0, symName: __ZNKSt3__114__split_bufferIiRNS_9allocatorIiEEE9__end_capB7v160006Ev, symObjAddr: 0x3078, symBinAddr: 0x100003978, symSize: 0x28 }
  - { offsetInCU: 0xBAAC, offset: 0xBAAC, size: 0x8, addend: 0x0, symName: __ZNKSt3__117__compressed_pairIPiRNS_9allocatorIiEEE5firstB7v160006Ev, symObjAddr: 0x30A0, symBinAddr: 0x1000039A0, symSize: 0x24 }
...
